
bin/gmsknl.elf:     file format elf64-x86-64


Disassembly of section .entry:

0000000000100000 <_knl_start>:
  100000:	fa                   	cli    
  100001:	89 de                	mov    esi,ebx
  100003:	89 c7                	mov    edi,eax
  100005:	b8 00 50 10 00       	mov    eax,0x105000
  10000a:	83 c0 02             	add    eax,0x2
  10000d:	c7 00 00 40 10 00    	mov    DWORD PTR [rax],0x104000
  100013:	b8 00 50 10 00       	mov    eax,0x105000
  100018:	66 0f 01 10          	data16 lgdt [rax]

000000000010001c <set_paging>:
  10001c:	66 b8 10 00          	mov    ax,0x10
  100020:	8e d8                	mov    ds,eax
  100022:	8e d0                	mov    ss,eax
  100024:	8e c0                	mov    es,eax
  100026:	8e e8                	mov    gs,eax
  100028:	8e e0                	mov    fs,eax
  10002a:	0f 20 e0             	mov    rax,cr4
  10002d:	0f ba e8 05          	bts    eax,0x5
  100031:	0f 22 e0             	mov    cr4,rax
  100034:	0f 20 c0             	mov    rax,cr0
  100037:	bb 00 00 00 80       	mov    ebx,0x80000000
  10003c:	f7 d3                	not    ebx
  10003e:	21 d8                	and    eax,ebx
  100040:	0f 22 c0             	mov    cr0,rax
  100043:	b8 00 10 10 00       	mov    eax,0x101000
  100048:	c7 00 07 20 10 00    	mov    DWORD PTR [rax],0x102007
  10004e:	c7 40 04 00 00 00 00 	mov    DWORD PTR [rax+0x4],0x0
  100055:	b8 00 20 10 00       	mov    eax,0x102000
  10005a:	c7 00 87 01 00 00    	mov    DWORD PTR [rax],0x187
  100060:	c7 40 04 00 00 00 00 	mov    DWORD PTR [rax+0x4],0x0
  100067:	b8 00 10 10 00       	mov    eax,0x101000
  10006c:	0f 22 d8             	mov    cr3,rax

000000000010006f <switch_cs>:
  10006f:	bc 00 00 40 00       	mov    esp,0x400000
  100074:	b9 80 00 00 c0       	mov    ecx,0xc0000080
  100079:	0f 32                	rdmsr  
  10007b:	0f ba e8 08          	bts    eax,0x8
  10007f:	0f ba e8 00          	bts    eax,0x0
  100083:	0f 30                	wrmsr  
  100085:	0f 20 c0             	mov    rax,cr0
  100088:	0f ba e8 00          	bts    eax,0x0
  10008c:	0f ba e8 1f          	bts    eax,0x1f
  100090:	0f 22 c0             	mov    cr0,rax
  100093:	b8 18 08 80 00       	mov    eax,0x800818
  100098:	ea                   	(bad)  
  100099:	18 08                	sbb    BYTE PTR [rax],cl
  10009b:	80 00 08             	add    BYTE PTR [rax],0x8
	...

bin/gmsknl.elf:     file format elf64-x86-64


Disassembly of section .text:

0000000000800000 <init_int>:
#include "kb.h"
#include "framebuffer.h"

gate *idt= (gate *) IDT_ADDR;
extern int disk_int_handler();
void init_int(){
  800000:	f3 0f 1e fa          	endbr64 
  800004:	55                   	push   rbp
  800005:	48 89 e5             	mov    rbp,rsp
  800008:	48 83 ec 10          	sub    rsp,0x10
    //asm volatile("sidt %0"::"m"(idt));
    set_gate(0,(addr_t)divide_err,GDT_SEL_CODE,GATE_PRESENT|TRAP_GATE);
  80000c:	b8 ff 03 80 00       	mov    eax,0x8003ff
  800011:	b9 00 8f 00 00       	mov    ecx,0x8f00
  800016:	ba 08 00 00 00       	mov    edx,0x8
  80001b:	48 89 c6             	mov    rsi,rax
  80001e:	bf 00 00 00 00       	mov    edi,0x0
  800023:	e8 0d 03 00 00       	call   800335 <set_gate>
    set_gate(1,(addr_t)debug,GDT_SEL_CODE,GATE_PRESENT|TRAP_GATE);
  800028:	b8 19 04 80 00       	mov    eax,0x800419
  80002d:	b9 00 8f 00 00       	mov    ecx,0x8f00
  800032:	ba 08 00 00 00       	mov    edx,0x8
  800037:	48 89 c6             	mov    rsi,rax
  80003a:	bf 01 00 00 00       	mov    edi,0x1
  80003f:	e8 f1 02 00 00       	call   800335 <set_gate>
    set_gate(2,(addr_t)default_int_proc,GDT_SEL_CODE,GATE_PRESENT|TRAP_GATE);
  800044:	b8 33 04 80 00       	mov    eax,0x800433
  800049:	b9 00 8f 00 00       	mov    ecx,0x8f00
  80004e:	ba 08 00 00 00       	mov    edx,0x8
  800053:	48 89 c6             	mov    rsi,rax
  800056:	bf 02 00 00 00       	mov    edi,0x2
  80005b:	e8 d5 02 00 00       	call   800335 <set_gate>
    set_gate(3,(addr_t)breakpoint,GDT_SEL_CODE,GATE_PRESENT|TRAP_GATE);
  800060:	b8 4d 04 80 00       	mov    eax,0x80044d
  800065:	b9 00 8f 00 00       	mov    ecx,0x8f00
  80006a:	ba 08 00 00 00       	mov    edx,0x8
  80006f:	48 89 c6             	mov    rsi,rax
  800072:	bf 03 00 00 00       	mov    edi,0x3
  800077:	e8 b9 02 00 00       	call   800335 <set_gate>
    set_gate(4,(addr_t)overflow,GDT_SEL_CODE,GATE_PRESENT|TRAP_GATE);
  80007c:	b8 67 04 80 00       	mov    eax,0x800467
  800081:	b9 00 8f 00 00       	mov    ecx,0x8f00
  800086:	ba 08 00 00 00       	mov    edx,0x8
  80008b:	48 89 c6             	mov    rsi,rax
  80008e:	bf 04 00 00 00       	mov    edi,0x4
  800093:	e8 9d 02 00 00       	call   800335 <set_gate>
    set_gate(5,(addr_t)bounds,GDT_SEL_CODE,GATE_PRESENT|TRAP_GATE);
  800098:	b8 81 04 80 00       	mov    eax,0x800481
  80009d:	b9 00 8f 00 00       	mov    ecx,0x8f00
  8000a2:	ba 08 00 00 00       	mov    edx,0x8
  8000a7:	48 89 c6             	mov    rsi,rax
  8000aa:	bf 05 00 00 00       	mov    edi,0x5
  8000af:	e8 81 02 00 00       	call   800335 <set_gate>
    set_gate(6,(addr_t)undefined_operator,GDT_SEL_CODE,GATE_PRESENT|TRAP_GATE);
  8000b4:	b8 9b 04 80 00       	mov    eax,0x80049b
  8000b9:	b9 00 8f 00 00       	mov    ecx,0x8f00
  8000be:	ba 08 00 00 00       	mov    edx,0x8
  8000c3:	48 89 c6             	mov    rsi,rax
  8000c6:	bf 06 00 00 00       	mov    edi,0x6
  8000cb:	e8 65 02 00 00       	call   800335 <set_gate>
    set_gate(7,(addr_t)coprocessor_notexist,GDT_SEL_CODE,GATE_PRESENT|TRAP_GATE);
  8000d0:	b8 bf 04 80 00       	mov    eax,0x8004bf
  8000d5:	b9 00 8f 00 00       	mov    ecx,0x8f00
  8000da:	ba 08 00 00 00       	mov    edx,0x8
  8000df:	48 89 c6             	mov    rsi,rax
  8000e2:	bf 07 00 00 00       	mov    edi,0x7
  8000e7:	e8 49 02 00 00       	call   800335 <set_gate>
    set_gate(8,(addr_t)double_ints,GDT_SEL_CODE,GATE_PRESENT|TRAP_GATE);//double_ints
  8000ec:	b8 d9 04 80 00       	mov    eax,0x8004d9
  8000f1:	b9 00 8f 00 00       	mov    ecx,0x8f00
  8000f6:	ba 08 00 00 00       	mov    edx,0x8
  8000fb:	48 89 c6             	mov    rsi,rax
  8000fe:	bf 08 00 00 00       	mov    edi,0x8
  800103:	e8 2d 02 00 00       	call   800335 <set_gate>
    set_gate(9,(addr_t)coprocessor_seg_overbound,GDT_SEL_CODE,GATE_PRESENT|TRAP_GATE);
  800108:	b8 f3 04 80 00       	mov    eax,0x8004f3
  80010d:	b9 00 8f 00 00       	mov    ecx,0x8f00
  800112:	ba 08 00 00 00       	mov    edx,0x8
  800117:	48 89 c6             	mov    rsi,rax
  80011a:	bf 09 00 00 00       	mov    edi,0x9
  80011f:	e8 11 02 00 00       	call   800335 <set_gate>
    set_gate(10,(addr_t)invalid_tss,GDT_SEL_CODE,GATE_PRESENT|TRAP_GATE);
  800124:	b8 0b 05 80 00       	mov    eax,0x80050b
  800129:	b9 00 8f 00 00       	mov    ecx,0x8f00
  80012e:	ba 08 00 00 00       	mov    edx,0x8
  800133:	48 89 c6             	mov    rsi,rax
  800136:	bf 0a 00 00 00       	mov    edi,0xa
  80013b:	e8 f5 01 00 00       	call   800335 <set_gate>
    set_gate(11,(addr_t)segment_notexist,GDT_SEL_CODE,GATE_PRESENT|TRAP_GATE);
  800140:	b8 25 05 80 00       	mov    eax,0x800525
  800145:	b9 00 8f 00 00       	mov    ecx,0x8f00
  80014a:	ba 08 00 00 00       	mov    edx,0x8
  80014f:	48 89 c6             	mov    rsi,rax
  800152:	bf 0b 00 00 00       	mov    edi,0xb
  800157:	e8 d9 01 00 00       	call   800335 <set_gate>
    set_gate(12,(addr_t)stackseg_overbound,GDT_SEL_CODE,GATE_PRESENT|TRAP_GATE);//
  80015c:	b8 3f 05 80 00       	mov    eax,0x80053f
  800161:	b9 00 8f 00 00       	mov    ecx,0x8f00
  800166:	ba 08 00 00 00       	mov    edx,0x8
  80016b:	48 89 c6             	mov    rsi,rax
  80016e:	bf 0c 00 00 00       	mov    edi,0xc
  800173:	e8 bd 01 00 00       	call   800335 <set_gate>
    set_gate(13,(addr_t)general_protect,GDT_SEL_CODE,GATE_PRESENT|TRAP_GATE);
  800178:	b8 59 05 80 00       	mov    eax,0x800559
  80017d:	b9 00 8f 00 00       	mov    ecx,0x8f00
  800182:	ba 08 00 00 00       	mov    edx,0x8
  800187:	48 89 c6             	mov    rsi,rax
  80018a:	bf 0d 00 00 00       	mov    edi,0xd
  80018f:	e8 a1 01 00 00       	call   800335 <set_gate>
    set_gate(14,(addr_t)page_err,GDT_SEL_CODE,GATE_PRESENT|TRAP_GATE);
  800194:	b8 05 12 80 00       	mov    eax,0x801205
  800199:	b9 00 8f 00 00       	mov    ecx,0x8f00
  80019e:	ba 08 00 00 00       	mov    edx,0x8
  8001a3:	48 89 c6             	mov    rsi,rax
  8001a6:	bf 0e 00 00 00       	mov    edi,0xe
  8001ab:	e8 85 01 00 00       	call   800335 <set_gate>
    set_gate(15,(addr_t)default_int_proc,GDT_SEL_CODE,GATE_PRESENT|TRAP_GATE);
  8001b0:	b8 33 04 80 00       	mov    eax,0x800433
  8001b5:	b9 00 8f 00 00       	mov    ecx,0x8f00
  8001ba:	ba 08 00 00 00       	mov    edx,0x8
  8001bf:	48 89 c6             	mov    rsi,rax
  8001c2:	bf 0f 00 00 00       	mov    edi,0xf
  8001c7:	e8 69 01 00 00       	call   800335 <set_gate>
    set_gate(16,(addr_t)coprocessor_err,GDT_SEL_CODE,GATE_PRESENT|TRAP_GATE);
  8001cc:	b8 80 05 80 00       	mov    eax,0x800580
  8001d1:	b9 00 8f 00 00       	mov    ecx,0x8f00
  8001d6:	ba 08 00 00 00       	mov    edx,0x8
  8001db:	48 89 c6             	mov    rsi,rax
  8001de:	bf 10 00 00 00       	mov    edi,0x10
  8001e3:	e8 4d 01 00 00       	call   800335 <set_gate>
    for (int i=17;i<48;i++)
  8001e8:	c7 45 fc 11 00 00 00 	mov    DWORD PTR [rbp-0x4],0x11
  8001ef:	eb 20                	jmp    800211 <init_int+0x211>
        set_gate(i,(addr_t)default_int_proc,GDT_SEL_CODE,GATE_PRESENT|INT_GATE);
  8001f1:	be 33 04 80 00       	mov    esi,0x800433
  8001f6:	8b 45 fc             	mov    eax,DWORD PTR [rbp-0x4]
  8001f9:	0f b6 c0             	movzx  eax,al
  8001fc:	b9 00 8e 00 00       	mov    ecx,0x8e00
  800201:	ba 08 00 00 00       	mov    edx,0x8
  800206:	89 c7                	mov    edi,eax
  800208:	e8 28 01 00 00       	call   800335 <set_gate>
    for (int i=17;i<48;i++)
  80020d:	83 45 fc 01          	add    DWORD PTR [rbp-0x4],0x1
  800211:	83 7d fc 2f          	cmp    DWORD PTR [rbp-0x4],0x2f
  800215:	7e da                	jle    8001f1 <init_int+0x1f1>
	set_gate(0x21,(addr_t)key_proc,GDT_SEL_CODE,GATE_PRESENT|INT_GATE);
  800217:	b8 63 69 80 00       	mov    eax,0x806963
  80021c:	b9 00 8e 00 00       	mov    ecx,0x8e00
  800221:	ba 08 00 00 00       	mov    edx,0x8
  800226:	48 89 c6             	mov    rsi,rax
  800229:	bf 21 00 00 00       	mov    edi,0x21
  80022e:	e8 02 01 00 00       	call   800335 <set_gate>
	set_gate(0x20,(addr_t)clock,GDT_SEL_CODE,GATE_PRESENT|INT_GATE);
  800233:	b8 d0 4a 80 00       	mov    eax,0x804ad0
  800238:	b9 00 8e 00 00       	mov    ecx,0x8e00
  80023d:	ba 08 00 00 00       	mov    edx,0x8
  800242:	48 89 c6             	mov    rsi,rax
  800245:	bf 20 00 00 00       	mov    edi,0x20
  80024a:	e8 e6 00 00 00       	call   800335 <set_gate>
	set_gate(0x2e,(addr_t)disk_int_handler,GDT_SEL_CODE,GATE_PRESENT|INT_GATE);
  80024f:	b8 90 78 80 00       	mov    eax,0x807890
  800254:	b9 00 8e 00 00       	mov    ecx,0x8e00
  800259:	ba 08 00 00 00       	mov    edx,0x8
  80025e:	48 89 c6             	mov    rsi,rax
  800261:	bf 2e 00 00 00       	mov    edi,0x2e
  800266:	e8 ca 00 00 00       	call   800335 <set_gate>
    set_gate(0x80,(addr_t)_syscall,GDT_SEL_CODE,GATE_PRESENT|INT_GATE);//
  80026b:	b8 b0 54 80 00       	mov    eax,0x8054b0
  800270:	b9 00 8e 00 00       	mov    ecx,0x8e00
  800275:	ba 08 00 00 00       	mov    edx,0x8
  80027a:	48 89 c6             	mov    rsi,rax
  80027d:	bf 80 00 00 00       	mov    edi,0x80
  800282:	e8 ae 00 00 00       	call   800335 <set_gate>
    //set_gate(0x2c,mouse_proc,GDT_SEL_CODE,GATE_PRESENT|INT_GATE);
    //启动8259A
    
	//ICW1
	outb(0x20,0x11);
  800287:	be 11 00 00 00       	mov    esi,0x11
  80028c:	bf 20 00 00 00       	mov    edi,0x20
  800291:	e8 aa 45 00 00       	call   804840 <outb>
	outb(0xA0,0x11);
  800296:	be 11 00 00 00       	mov    esi,0x11
  80029b:	bf a0 00 00 00       	mov    edi,0xa0
  8002a0:	e8 9b 45 00 00       	call   804840 <outb>
	//ICW2
	outb(0x21,0x20);//former 0x20,0x20
  8002a5:	be 20 00 00 00       	mov    esi,0x20
  8002aa:	bf 21 00 00 00       	mov    edi,0x21
  8002af:	e8 8c 45 00 00       	call   804840 <outb>
	outb(0xA1,0x28);
  8002b4:	be 28 00 00 00       	mov    esi,0x28
  8002b9:	bf a1 00 00 00       	mov    edi,0xa1
  8002be:	e8 7d 45 00 00       	call   804840 <outb>
	//ICW3
	outb(0x21,0x04);
  8002c3:	be 04 00 00 00       	mov    esi,0x4
  8002c8:	bf 21 00 00 00       	mov    edi,0x21
  8002cd:	e8 6e 45 00 00       	call   804840 <outb>
	outb(0xA1,0x02);
  8002d2:	be 02 00 00 00       	mov    esi,0x2
  8002d7:	bf a1 00 00 00       	mov    edi,0xa1
  8002dc:	e8 5f 45 00 00       	call   804840 <outb>
	//ICW4
	outb(0x21,0x01);
  8002e1:	be 01 00 00 00       	mov    esi,0x1
  8002e6:	bf 21 00 00 00       	mov    edi,0x21
  8002eb:	e8 50 45 00 00       	call   804840 <outb>
	outb(0xA1,0x01);
  8002f0:	be 01 00 00 00       	mov    esi,0x1
  8002f5:	bf a1 00 00 00       	mov    edi,0xa1
  8002fa:	e8 41 45 00 00       	call   804840 <outb>

    turn_on_int();
  8002ff:	b8 00 00 00 00       	mov    eax,0x0
  800304:	e8 71 45 00 00       	call   80487a <turn_on_int>


    //设置IA32_LSTAR,为syscall做设置
    wrmsr(0xc0000082, _syscall);
  800309:	b8 b0 54 80 00       	mov    eax,0x8054b0
  80030e:	48 89 c6             	mov    rsi,rax
  800311:	b8 82 00 00 c0       	mov    eax,0xc0000082
  800316:	48 89 c7             	mov    rdi,rax
  800319:	e8 d0 04 00 00       	call   8007ee <wrmsr>
    //设置IA32_FMASK,为syscall做设置
    wrmsr(0xc0000084, -1);
  80031e:	48 c7 c6 ff ff ff ff 	mov    rsi,0xffffffffffffffff
  800325:	b8 84 00 00 c0       	mov    eax,0xc0000084
  80032a:	48 89 c7             	mov    rdi,rax
  80032d:	e8 bc 04 00 00       	call   8007ee <wrmsr>
}
  800332:	90                   	nop
  800333:	c9                   	leave  
  800334:	c3                   	ret    

0000000000800335 <set_gate>:
void set_gate(u8 index,addr_t offset,u16 selector,u16 attr)
{
  800335:	f3 0f 1e fa          	endbr64 
  800339:	55                   	push   rbp
  80033a:	48 89 e5             	mov    rbp,rsp
  80033d:	48 89 75 f0          	mov    QWORD PTR [rbp-0x10],rsi
  800341:	89 c8                	mov    eax,ecx
  800343:	89 f9                	mov    ecx,edi
  800345:	88 4d fc             	mov    BYTE PTR [rbp-0x4],cl
  800348:	66 89 55 f8          	mov    WORD PTR [rbp-0x8],dx
  80034c:	66 89 45 ec          	mov    WORD PTR [rbp-0x14],ax
    idt[index].offset_low=offset&0xffffu;
    idt[index].offset_high=(offset>>16)&0xffffu;
    idt[index].attr=attr;
    idt[index].selector=selector;
#else
    idt[index].offset_low=offset&0xffff;
  800350:	48 8b 15 c9 ad 00 00 	mov    rdx,QWORD PTR [rip+0xadc9]        # 80b120 <idt>
  800357:	0f b6 45 fc          	movzx  eax,BYTE PTR [rbp-0x4]
  80035b:	48 c1 e0 04          	shl    rax,0x4
  80035f:	48 01 d0             	add    rax,rdx
  800362:	48 8b 55 f0          	mov    rdx,QWORD PTR [rbp-0x10]
  800366:	66 89 10             	mov    WORD PTR [rax],dx
    idt[index].offset_mid=(offset>>16)&0xffff;
  800369:	48 8b 45 f0          	mov    rax,QWORD PTR [rbp-0x10]
  80036d:	48 c1 e8 10          	shr    rax,0x10
  800371:	48 89 c2             	mov    rdx,rax
  800374:	48 8b 0d a5 ad 00 00 	mov    rcx,QWORD PTR [rip+0xada5]        # 80b120 <idt>
  80037b:	0f b6 45 fc          	movzx  eax,BYTE PTR [rbp-0x4]
  80037f:	48 c1 e0 04          	shl    rax,0x4
  800383:	48 01 c8             	add    rax,rcx
  800386:	66 89 50 06          	mov    WORD PTR [rax+0x6],dx
    idt[index].offset_high=(offset>>32)&0x0000ffff;
  80038a:	48 8b 45 f0          	mov    rax,QWORD PTR [rbp-0x10]
  80038e:	48 c1 e8 20          	shr    rax,0x20
  800392:	89 c1                	mov    ecx,eax
  800394:	48 8b 15 85 ad 00 00 	mov    rdx,QWORD PTR [rip+0xad85]        # 80b120 <idt>
  80039b:	0f b6 45 fc          	movzx  eax,BYTE PTR [rbp-0x4]
  80039f:	48 c1 e0 04          	shl    rax,0x4
  8003a3:	48 01 c2             	add    rdx,rax
  8003a6:	0f b7 c1             	movzx  eax,cx
  8003a9:	89 42 08             	mov    DWORD PTR [rdx+0x8],eax
    idt[index].attr=attr|1;//1是ist索引
  8003ac:	48 8b 15 6d ad 00 00 	mov    rdx,QWORD PTR [rip+0xad6d]        # 80b120 <idt>
  8003b3:	0f b6 45 fc          	movzx  eax,BYTE PTR [rbp-0x4]
  8003b7:	48 c1 e0 04          	shl    rax,0x4
  8003bb:	48 01 d0             	add    rax,rdx
  8003be:	0f b7 55 ec          	movzx  edx,WORD PTR [rbp-0x14]
  8003c2:	83 ca 01             	or     edx,0x1
  8003c5:	66 89 50 04          	mov    WORD PTR [rax+0x4],dx
    idt[index].selector=selector;
  8003c9:	48 8b 15 50 ad 00 00 	mov    rdx,QWORD PTR [rip+0xad50]        # 80b120 <idt>
  8003d0:	0f b6 45 fc          	movzx  eax,BYTE PTR [rbp-0x4]
  8003d4:	48 c1 e0 04          	shl    rax,0x4
  8003d8:	48 01 c2             	add    rdx,rax
  8003db:	0f b7 45 f8          	movzx  eax,WORD PTR [rbp-0x8]
  8003df:	66 89 42 02          	mov    WORD PTR [rdx+0x2],ax
    idt[index].rsvd=0;
  8003e3:	48 8b 15 36 ad 00 00 	mov    rdx,QWORD PTR [rip+0xad36]        # 80b120 <idt>
  8003ea:	0f b6 45 fc          	movzx  eax,BYTE PTR [rbp-0x4]
  8003ee:	48 c1 e0 04          	shl    rax,0x4
  8003f2:	48 01 d0             	add    rax,rdx
  8003f5:	c7 40 0c 00 00 00 00 	mov    DWORD PTR [rax+0xc],0x0
#endif
}
  8003fc:	90                   	nop
  8003fd:	5d                   	pop    rbp
  8003fe:	c3                   	ret    

00000000008003ff <divide_err>:

void divide_err(){
  8003ff:	f3 0f 1e fa          	endbr64 
  800403:	55                   	push   rbp
  800404:	48 89 e5             	mov    rbp,rsp
    asm("cli");
  800407:	fa                   	cli    
    //puts("divide err");
    eoi();
  800408:	b8 00 00 00 00       	mov    eax,0x0
  80040d:	e8 5c 44 00 00       	call   80486e <eoi>
    __asm__ volatile ("sti \r\n leave \r\n iretq");
  800412:	fb                   	sti    
  800413:	c9                   	leave  
  800414:	48 cf                	iretq  
}
  800416:	90                   	nop
  800417:	5d                   	pop    rbp
  800418:	c3                   	ret    

0000000000800419 <debug>:

void debug(){
  800419:	f3 0f 1e fa          	endbr64 
  80041d:	55                   	push   rbp
  80041e:	48 89 e5             	mov    rbp,rsp
    asm("cli");
  800421:	fa                   	cli    
    //puts("debug");
    eoi();
  800422:	b8 00 00 00 00       	mov    eax,0x0
  800427:	e8 42 44 00 00       	call   80486e <eoi>
    __asm__ volatile ("sti \r\n leave \r\n iretq");
  80042c:	fb                   	sti    
  80042d:	c9                   	leave  
  80042e:	48 cf                	iretq  
}
  800430:	90                   	nop
  800431:	5d                   	pop    rbp
  800432:	c3                   	ret    

0000000000800433 <default_int_proc>:
void default_int_proc(){
  800433:	f3 0f 1e fa          	endbr64 
  800437:	55                   	push   rbp
  800438:	48 89 e5             	mov    rbp,rsp
    asm("cli");
  80043b:	fa                   	cli    
    //puts("default_int_proc");
    eoi();
  80043c:	b8 00 00 00 00       	mov    eax,0x0
  800441:	e8 28 44 00 00       	call   80486e <eoi>
    __asm__ volatile ("sti \r\n leave \r\n iretq");
  800446:	fb                   	sti    
  800447:	c9                   	leave  
  800448:	48 cf                	iretq  
}
  80044a:	90                   	nop
  80044b:	5d                   	pop    rbp
  80044c:	c3                   	ret    

000000000080044d <breakpoint>:
void breakpoint(){
  80044d:	f3 0f 1e fa          	endbr64 
  800451:	55                   	push   rbp
  800452:	48 89 e5             	mov    rbp,rsp
    asm("cli");
  800455:	fa                   	cli    
    //puts("breakpoint");
    eoi();
  800456:	b8 00 00 00 00       	mov    eax,0x0
  80045b:	e8 0e 44 00 00       	call   80486e <eoi>
    __asm__ volatile ("sti \r\n leave \r\n iretq");
  800460:	fb                   	sti    
  800461:	c9                   	leave  
  800462:	48 cf                	iretq  
}
  800464:	90                   	nop
  800465:	5d                   	pop    rbp
  800466:	c3                   	ret    

0000000000800467 <overflow>:
void overflow(){
  800467:	f3 0f 1e fa          	endbr64 
  80046b:	55                   	push   rbp
  80046c:	48 89 e5             	mov    rbp,rsp
    asm("cli");
  80046f:	fa                   	cli    
    //puts("overflow");
    eoi();
  800470:	b8 00 00 00 00       	mov    eax,0x0
  800475:	e8 f4 43 00 00       	call   80486e <eoi>
    __asm__ volatile ("sti \r\n leave \r\n iretq");
  80047a:	fb                   	sti    
  80047b:	c9                   	leave  
  80047c:	48 cf                	iretq  
}
  80047e:	90                   	nop
  80047f:	5d                   	pop    rbp
  800480:	c3                   	ret    

0000000000800481 <bounds>:
void bounds(){
  800481:	f3 0f 1e fa          	endbr64 
  800485:	55                   	push   rbp
  800486:	48 89 e5             	mov    rbp,rsp
    asm("cli");
  800489:	fa                   	cli    
    //puts("bounds");
    eoi();
  80048a:	b8 00 00 00 00       	mov    eax,0x0
  80048f:	e8 da 43 00 00       	call   80486e <eoi>
    __asm__ volatile ("sti \r\n leave \r\n iretq");
  800494:	fb                   	sti    
  800495:	c9                   	leave  
  800496:	48 cf                	iretq  
}
  800498:	90                   	nop
  800499:	5d                   	pop    rbp
  80049a:	c3                   	ret    

000000000080049b <undefined_operator>:
void undefined_operator(){
  80049b:	f3 0f 1e fa          	endbr64 
  80049f:	55                   	push   rbp
  8004a0:	48 89 e5             	mov    rbp,rsp
    //puts("undef operator");
    eoi();
  8004a3:	b8 00 00 00 00       	mov    eax,0x0
  8004a8:	e8 c1 43 00 00       	call   80486e <eoi>
    report_back_trace_of_err();
  8004ad:	b8 00 00 00 00       	mov    eax,0x0
  8004b2:	e8 e2 43 00 00       	call   804899 <report_back_trace_of_err>
    __asm__ volatile ("jmp .\r\n leave \r\n iretq");
  8004b7:	eb fe                	jmp    8004b7 <undefined_operator+0x1c>
  8004b9:	c9                   	leave  
  8004ba:	48 cf                	iretq  
}
  8004bc:	90                   	nop
  8004bd:	5d                   	pop    rbp
  8004be:	c3                   	ret    

00000000008004bf <coprocessor_notexist>:
void coprocessor_notexist(){
  8004bf:	f3 0f 1e fa          	endbr64 
  8004c3:	55                   	push   rbp
  8004c4:	48 89 e5             	mov    rbp,rsp
    asm("cli");
  8004c7:	fa                   	cli    
    //puts("coprocessor doesnt exist");
    eoi();
  8004c8:	b8 00 00 00 00       	mov    eax,0x0
  8004cd:	e8 9c 43 00 00       	call   80486e <eoi>
    __asm__ volatile ("sti \r\n leave \r\n iretq");
  8004d2:	fb                   	sti    
  8004d3:	c9                   	leave  
  8004d4:	48 cf                	iretq  
}
  8004d6:	90                   	nop
  8004d7:	5d                   	pop    rbp
  8004d8:	c3                   	ret    

00000000008004d9 <double_ints>:
void double_ints(){
  8004d9:	f3 0f 1e fa          	endbr64 
  8004dd:	55                   	push   rbp
  8004de:	48 89 e5             	mov    rbp,rsp
    asm("cli");
  8004e1:	fa                   	cli    
    //puts("double interrupts");
    eoi();
  8004e2:	b8 00 00 00 00       	mov    eax,0x0
  8004e7:	e8 82 43 00 00       	call   80486e <eoi>
    __asm__ volatile ("sti \r\n leave \r\n iretq");
  8004ec:	fb                   	sti    
  8004ed:	c9                   	leave  
  8004ee:	48 cf                	iretq  
}
  8004f0:	90                   	nop
  8004f1:	5d                   	pop    rbp
  8004f2:	c3                   	ret    

00000000008004f3 <coprocessor_seg_overbound>:
void coprocessor_seg_overbound(){
  8004f3:	f3 0f 1e fa          	endbr64 
  8004f7:	55                   	push   rbp
  8004f8:	48 89 e5             	mov    rbp,rsp
    //puts("coprocessfor seg overdound");
    eoi();
  8004fb:	b8 00 00 00 00       	mov    eax,0x0
  800500:	e8 69 43 00 00       	call   80486e <eoi>
    __asm__ volatile ("leave \r\n iretq");
  800505:	c9                   	leave  
  800506:	48 cf                	iretq  
}
  800508:	90                   	nop
  800509:	5d                   	pop    rbp
  80050a:	c3                   	ret    

000000000080050b <invalid_tss>:
void invalid_tss(){
  80050b:	f3 0f 1e fa          	endbr64 
  80050f:	55                   	push   rbp
  800510:	48 89 e5             	mov    rbp,rsp
    asm("cli");
  800513:	fa                   	cli    
    //puts("invalid tss");
    eoi();
  800514:	b8 00 00 00 00       	mov    eax,0x0
  800519:	e8 50 43 00 00       	call   80486e <eoi>
    __asm__ volatile ("sti \r\n leave \r\n iretq");
  80051e:	fb                   	sti    
  80051f:	c9                   	leave  
  800520:	48 cf                	iretq  
}
  800522:	90                   	nop
  800523:	5d                   	pop    rbp
  800524:	c3                   	ret    

0000000000800525 <segment_notexist>:
void segment_notexist(){
  800525:	f3 0f 1e fa          	endbr64 
  800529:	55                   	push   rbp
  80052a:	48 89 e5             	mov    rbp,rsp
    asm("cli");
  80052d:	fa                   	cli    
    //puts("seg nonexistent");
    eoi();
  80052e:	b8 00 00 00 00       	mov    eax,0x0
  800533:	e8 36 43 00 00       	call   80486e <eoi>
    __asm__ volatile ("sti \r\n leave \r\n iretq");
  800538:	fb                   	sti    
  800539:	c9                   	leave  
  80053a:	48 cf                	iretq  
}
  80053c:	90                   	nop
  80053d:	5d                   	pop    rbp
  80053e:	c3                   	ret    

000000000080053f <stackseg_overbound>:
void stackseg_overbound(){
  80053f:	f3 0f 1e fa          	endbr64 
  800543:	55                   	push   rbp
  800544:	48 89 e5             	mov    rbp,rsp
    asm("cli");
  800547:	fa                   	cli    
    //puts("stack seg overbound");
    eoi();
  800548:	b8 00 00 00 00       	mov    eax,0x0
  80054d:	e8 1c 43 00 00       	call   80486e <eoi>
    __asm__ volatile ("sti \r\n leave \r\n iretq");
  800552:	fb                   	sti    
  800553:	c9                   	leave  
  800554:	48 cf                	iretq  
}
  800556:	90                   	nop
  800557:	5d                   	pop    rbp
  800558:	c3                   	ret    

0000000000800559 <general_protect>:
void general_protect(){
  800559:	f3 0f 1e fa          	endbr64 
  80055d:	55                   	push   rbp
  80055e:	48 89 e5             	mov    rbp,rsp
  800561:	48 83 ec 10          	sub    rsp,0x10
    //print("general protect.");
    int err_code=0;
  800565:	c7 45 fc 00 00 00 00 	mov    DWORD PTR [rbp-0x4],0x0
    //杀死问题进程
    del_proc(cur_proc);
    printf("killed the problem process.\n");
	printf("shell:>");
    switch_proc_tss(0); */
    eoi();
  80056c:	b8 00 00 00 00       	mov    eax,0x0
  800571:	e8 f8 42 00 00       	call   80486e <eoi>
    __asm__ volatile ("leave\r\n add $8,%rsp \r\n iretq");
  800576:	c9                   	leave  
  800577:	48 83 c4 08          	add    rsp,0x8
  80057b:	48 cf                	iretq  
}
  80057d:	90                   	nop
  80057e:	c9                   	leave  
  80057f:	c3                   	ret    

0000000000800580 <coprocessor_err>:

void coprocessor_err(){
  800580:	f3 0f 1e fa          	endbr64 
  800584:	55                   	push   rbp
  800585:	48 89 e5             	mov    rbp,rsp
    asm("cli");
  800588:	fa                   	cli    
    //puts("coprocessor err");
    eoi();
  800589:	b8 00 00 00 00       	mov    eax,0x0
  80058e:	e8 db 42 00 00       	call   80486e <eoi>
    __asm__ volatile ("sti \r\n leave \r\n iretq");
  800593:	fb                   	sti    
  800594:	c9                   	leave  
  800595:	48 cf                	iretq  
}
  800597:	90                   	nop
  800598:	5d                   	pop    rbp
  800599:	c3                   	ret    

000000000080059a <syscall>:

xchg rcx to r10

*/
int syscall(int a, int b, int c, int d, int e, int f)
{
  80059a:	f3 0f 1e fa          	endbr64 
  80059e:	55                   	push   rbp
  80059f:	48 89 e5             	mov    rbp,rsp
  8005a2:	48 83 ec 30          	sub    rsp,0x30
  8005a6:	89 7d ec             	mov    DWORD PTR [rbp-0x14],edi
  8005a9:	89 75 e8             	mov    DWORD PTR [rbp-0x18],esi
  8005ac:	89 55 e4             	mov    DWORD PTR [rbp-0x1c],edx
  8005af:	89 4d e0             	mov    DWORD PTR [rbp-0x20],ecx
  8005b2:	44 89 45 dc          	mov    DWORD PTR [rbp-0x24],r8d
  8005b6:	44 89 4d d8          	mov    DWORD PTR [rbp-0x28],r9d
    unsigned long num;
    asm volatile("":"=a"(num));//这样rax中存的参数就到这了
  8005ba:	48 89 45 f8          	mov    QWORD PTR [rbp-0x8],rax
    switch (a)
  8005be:	83 7d ec 64          	cmp    DWORD PTR [rbp-0x14],0x64
  8005c2:	0f 87 24 02 00 00    	ja     8007ec <syscall+0x252>
  8005c8:	8b 45 ec             	mov    eax,DWORD PTR [rbp-0x14]
  8005cb:	48 8b 04 c5 60 28 81 	mov    rax,QWORD PTR [rax*8+0x812860]
  8005d2:	00 
  8005d3:	3e ff e0             	notrack jmp rax
    {
        case 0:return reg_device(a);
  8005d6:	8b 45 ec             	mov    eax,DWORD PTR [rbp-0x14]
  8005d9:	48 98                	cdqe   
  8005db:	48 89 c7             	mov    rdi,rax
  8005de:	e8 e0 1d 00 00       	call   8023c3 <reg_device>
  8005e3:	e9 04 02 00 00       	jmp    8007ec <syscall+0x252>
        case 1:return dispose_device(a);
  8005e8:	8b 45 ec             	mov    eax,DWORD PTR [rbp-0x14]
  8005eb:	89 c7                	mov    edi,eax
  8005ed:	e8 30 28 00 00       	call   802e22 <dispose_device>
  8005f2:	e9 f5 01 00 00       	jmp    8007ec <syscall+0x252>
        case 2:return reg_driver(a);
  8005f7:	8b 45 ec             	mov    eax,DWORD PTR [rbp-0x14]
  8005fa:	48 98                	cdqe   
  8005fc:	48 89 c7             	mov    rdi,rax
  8005ff:	e8 a7 20 00 00       	call   8026ab <reg_driver>
  800604:	e9 e3 01 00 00       	jmp    8007ec <syscall+0x252>
        case 3:return dispose_driver(a);
  800609:	8b 45 ec             	mov    eax,DWORD PTR [rbp-0x14]
  80060c:	48 98                	cdqe   
  80060e:	48 89 c7             	mov    rdi,rax
  800611:	e8 aa 28 00 00       	call   802ec0 <dispose_driver>
  800616:	e9 d1 01 00 00       	jmp    8007ec <syscall+0x252>
        case 4:return call_drv_func(a,b,c);
  80061b:	8b 45 e4             	mov    eax,DWORD PTR [rbp-0x1c]
  80061e:	48 98                	cdqe   
  800620:	48 89 c2             	mov    rdx,rax
  800623:	8b 4d e8             	mov    ecx,DWORD PTR [rbp-0x18]
  800626:	8b 45 ec             	mov    eax,DWORD PTR [rbp-0x14]
  800629:	89 ce                	mov    esi,ecx
  80062b:	89 c7                	mov    edi,eax
  80062d:	e8 99 25 00 00       	call   802bcb <call_drv_func>
  800632:	e9 b5 01 00 00       	jmp    8007ec <syscall+0x252>
        case 5:return req_page_at(a,b);
  800637:	8b 45 ec             	mov    eax,DWORD PTR [rbp-0x14]
  80063a:	48 98                	cdqe   
  80063c:	8b 55 e8             	mov    edx,DWORD PTR [rbp-0x18]
  80063f:	89 d6                	mov    esi,edx
  800641:	48 89 c7             	mov    rdi,rax
  800644:	e8 1e 11 00 00       	call   801767 <req_page_at>
  800649:	e9 9e 01 00 00       	jmp    8007ec <syscall+0x252>
        case 6:return free_page(a);
  80064e:	8b 45 ec             	mov    eax,DWORD PTR [rbp-0x14]
  800651:	48 98                	cdqe   
  800653:	48 89 c7             	mov    rdi,rax
  800656:	e8 19 0f 00 00       	call   801574 <free_page>
  80065b:	e9 8c 01 00 00       	jmp    8007ec <syscall+0x252>
        case 7:return reg_proc(a, b, c);
  800660:	8b 45 e4             	mov    eax,DWORD PTR [rbp-0x1c]
  800663:	48 98                	cdqe   
  800665:	48 89 c2             	mov    rdx,rax
  800668:	8b 45 e8             	mov    eax,DWORD PTR [rbp-0x18]
  80066b:	48 98                	cdqe   
  80066d:	48 89 c1             	mov    rcx,rax
  800670:	8b 45 ec             	mov    eax,DWORD PTR [rbp-0x14]
  800673:	48 98                	cdqe   
  800675:	48 89 ce             	mov    rsi,rcx
  800678:	48 89 c7             	mov    rdi,rax
  80067b:	e8 13 3b 00 00       	call   804193 <reg_proc>
  800680:	e9 67 01 00 00       	jmp    8007ec <syscall+0x252>
        case 8:del_proc(a);
  800685:	8b 45 ec             	mov    eax,DWORD PTR [rbp-0x14]
  800688:	89 c7                	mov    edi,eax
  80068a:	e8 cf 38 00 00       	call   803f5e <del_proc>
        case 10:chk_vm(a,b);
  80068f:	8b 55 e8             	mov    edx,DWORD PTR [rbp-0x18]
  800692:	8b 45 ec             	mov    eax,DWORD PTR [rbp-0x14]
  800695:	89 d6                	mov    esi,edx
  800697:	89 c7                	mov    edi,eax
  800699:	e8 a2 11 00 00       	call   801840 <chk_vm>
        case 11:return sys_open(a,b);
  80069e:	8b 45 ec             	mov    eax,DWORD PTR [rbp-0x14]
  8006a1:	48 98                	cdqe   
  8006a3:	48 89 c2             	mov    rdx,rax
  8006a6:	8b 45 e8             	mov    eax,DWORD PTR [rbp-0x18]
  8006a9:	89 c6                	mov    esi,eax
  8006ab:	48 89 d7             	mov    rdi,rdx
  8006ae:	e8 92 58 00 00       	call   805f45 <sys_open>
  8006b3:	e9 34 01 00 00       	jmp    8007ec <syscall+0x252>
        case 12:return sys_close(a);
  8006b8:	8b 45 ec             	mov    eax,DWORD PTR [rbp-0x14]
  8006bb:	89 c7                	mov    edi,eax
  8006bd:	e8 9a 5b 00 00       	call   80625c <sys_close>
  8006c2:	e9 25 01 00 00       	jmp    8007ec <syscall+0x252>
        case 13:return sys_read(a,b,c);
  8006c7:	8b 45 e4             	mov    eax,DWORD PTR [rbp-0x1c]
  8006ca:	48 63 d0             	movsxd rdx,eax
  8006cd:	8b 45 e8             	mov    eax,DWORD PTR [rbp-0x18]
  8006d0:	48 98                	cdqe   
  8006d2:	48 89 c1             	mov    rcx,rax
  8006d5:	8b 45 ec             	mov    eax,DWORD PTR [rbp-0x14]
  8006d8:	48 89 ce             	mov    rsi,rcx
  8006db:	89 c7                	mov    edi,eax
  8006dd:	e8 32 5c 00 00       	call   806314 <sys_read>
  8006e2:	e9 05 01 00 00       	jmp    8007ec <syscall+0x252>
        case 14:return sys_write(a,b,c);
  8006e7:	8b 45 e4             	mov    eax,DWORD PTR [rbp-0x1c]
  8006ea:	48 63 d0             	movsxd rdx,eax
  8006ed:	8b 45 e8             	mov    eax,DWORD PTR [rbp-0x18]
  8006f0:	48 98                	cdqe   
  8006f2:	48 89 c1             	mov    rcx,rax
  8006f5:	8b 45 ec             	mov    eax,DWORD PTR [rbp-0x14]
  8006f8:	48 89 ce             	mov    rsi,rcx
  8006fb:	89 c7                	mov    edi,eax
  8006fd:	e8 c2 5c 00 00       	call   8063c4 <sys_write>
  800702:	e9 e5 00 00 00       	jmp    8007ec <syscall+0x252>
        case 15:return sys_lseek(a,b,c);
  800707:	8b 45 e8             	mov    eax,DWORD PTR [rbp-0x18]
  80070a:	48 63 c8             	movsxd rcx,eax
  80070d:	8b 55 e4             	mov    edx,DWORD PTR [rbp-0x1c]
  800710:	8b 45 ec             	mov    eax,DWORD PTR [rbp-0x14]
  800713:	48 89 ce             	mov    rsi,rcx
  800716:	89 c7                	mov    edi,eax
  800718:	e8 57 5d 00 00       	call   806474 <sys_lseek>
  80071d:	e9 ca 00 00 00       	jmp    8007ec <syscall+0x252>
        case 16:return sys_tell(a);
  800722:	8b 45 ec             	mov    eax,DWORD PTR [rbp-0x14]
  800725:	89 c7                	mov    edi,eax
  800727:	e8 f8 14 00 00       	call   801c24 <sys_tell>
  80072c:	e9 bb 00 00 00       	jmp    8007ec <syscall+0x252>
        case 17:return reg_vol(a,b,c);
  800731:	8b 55 e4             	mov    edx,DWORD PTR [rbp-0x1c]
  800734:	8b 4d e8             	mov    ecx,DWORD PTR [rbp-0x18]
  800737:	8b 45 ec             	mov    eax,DWORD PTR [rbp-0x14]
  80073a:	89 ce                	mov    esi,ecx
  80073c:	89 c7                	mov    edi,eax
  80073e:	b8 00 00 00 00       	mov    eax,0x0
  800743:	e8 d1 13 00 00       	call   801b19 <reg_vol>
  800748:	e9 9f 00 00 00       	jmp    8007ec <syscall+0x252>
        case 18:return free_vol(a);
  80074d:	8b 45 ec             	mov    eax,DWORD PTR [rbp-0x14]
  800750:	89 c7                	mov    edi,eax
  800752:	b8 00 00 00 00       	mov    eax,0x0
  800757:	e8 a1 13 00 00       	call   801afd <free_vol>
  80075c:	e9 8b 00 00 00       	jmp    8007ec <syscall+0x252>
        case 19:return sys_execve(a);
  800761:	8b 45 ec             	mov    eax,DWORD PTR [rbp-0x14]
  800764:	48 98                	cdqe   
  800766:	48 89 c7             	mov    rdi,rax
  800769:	e8 b1 43 00 00       	call   804b1f <sys_execve>
  80076e:	eb 7c                	jmp    8007ec <syscall+0x252>
        case SYSCALL_EXIT:return sys_exit(a);
  800770:	8b 45 ec             	mov    eax,DWORD PTR [rbp-0x14]
  800773:	89 c7                	mov    edi,eax
  800775:	e8 f1 39 00 00       	call   80416b <sys_exit>
  80077a:	eb 70                	jmp    8007ec <syscall+0x252>
        case SYSCALL_CALL:return exec_call(a);
  80077c:	8b 45 ec             	mov    eax,DWORD PTR [rbp-0x14]
  80077f:	48 98                	cdqe   
  800781:	48 89 c7             	mov    rdi,rax
  800784:	e8 94 44 00 00       	call   804c1d <exec_call>
  800789:	eb 61                	jmp    8007ec <syscall+0x252>
        case SYSCALL_MKFIFO:return sys_mkfifo(a);
  80078b:	8b 45 ec             	mov    eax,DWORD PTR [rbp-0x14]
  80078e:	89 c7                	mov    edi,eax
  800790:	e8 09 12 00 00       	call   80199e <sys_mkfifo>
  800795:	eb 55                	jmp    8007ec <syscall+0x252>
        case SYSCALL_MALLOC:return sys_malloc(a);
  800797:	8b 45 ec             	mov    eax,DWORD PTR [rbp-0x14]
  80079a:	89 c7                	mov    edi,eax
  80079c:	e8 f4 3b 00 00       	call   804395 <sys_malloc>
  8007a1:	eb 49                	jmp    8007ec <syscall+0x252>
        case SYSCALL_FREE:return sys_free(a);
  8007a3:	8b 45 ec             	mov    eax,DWORD PTR [rbp-0x14]
  8007a6:	89 c7                	mov    edi,eax
  8007a8:	e8 8f 3d 00 00       	call   80453c <sys_free>
  8007ad:	eb 3d                	jmp    8007ec <syscall+0x252>
        case SYSCALL_KB_READC:return sys_getkbc();
  8007af:	b8 00 00 00 00       	mov    eax,0x0
  8007b4:	e8 be 62 00 00       	call   806a77 <sys_getkbc>
  8007b9:	0f be c0             	movsx  eax,al
  8007bc:	eb 2e                	jmp    8007ec <syscall+0x252>
        case SYSCALL_FIND_DEV:return sys_find_dev(a);
  8007be:	8b 45 ec             	mov    eax,DWORD PTR [rbp-0x14]
  8007c1:	48 98                	cdqe   
  8007c3:	48 89 c7             	mov    rdi,rax
  8007c6:	e8 30 20 00 00       	call   8027fb <sys_find_dev>
  8007cb:	eb 1f                	jmp    8007ec <syscall+0x252>
        case SYSCALL_OPERATE_DEV:return sys_operate_dev(a,b,c);
  8007cd:	8b 45 e4             	mov    eax,DWORD PTR [rbp-0x1c]
  8007d0:	48 98                	cdqe   
  8007d2:	48 89 c2             	mov    rdx,rax
  8007d5:	8b 45 ec             	mov    eax,DWORD PTR [rbp-0x14]
  8007d8:	48 98                	cdqe   
  8007da:	48 89 c1             	mov    rcx,rax
  8007dd:	8b 45 e8             	mov    eax,DWORD PTR [rbp-0x18]
  8007e0:	89 c6                	mov    esi,eax
  8007e2:	48 89 cf             	mov    rdi,rcx
  8007e5:	e8 a3 20 00 00       	call   80288d <sys_operate_dev>
  8007ea:	eb 00                	jmp    8007ec <syscall+0x252>
    }
    // __asm__ volatile("mov %0,%%eax\r\n mov %1,%%ebx\r\n mov %2,%%ecx\r\n mov %3,%%edx\r\n mov %4,%%esi\r\n mov %5,%%edi"\
    // ::"m"(func),"m"(a),"m"(b),"m"(c),"m"(d),"m"(e));
    // __asm__ volatile("int $0x80\r\n leave\r\n ret");
}
  8007ec:	c9                   	leave  
  8007ed:	c3                   	ret    

00000000008007ee <wrmsr>:
void wrmsr(unsigned long address,unsigned long value)
{
  8007ee:	f3 0f 1e fa          	endbr64 
  8007f2:	55                   	push   rbp
  8007f3:	48 89 e5             	mov    rbp,rsp
  8007f6:	48 89 7d f8          	mov    QWORD PTR [rbp-0x8],rdi
  8007fa:	48 89 75 f0          	mov    QWORD PTR [rbp-0x10],rsi
    __asm__ __volatile__	("wrmsr	\n\t"::"d"(value >> 32),"a"(value & 0xffffffff),"c"(address):"memory");
  8007fe:	48 8b 45 f0          	mov    rax,QWORD PTR [rbp-0x10]
  800802:	48 c1 e8 20          	shr    rax,0x20
  800806:	48 89 c2             	mov    rdx,rax
  800809:	48 8b 45 f0          	mov    rax,QWORD PTR [rbp-0x10]
  80080d:	89 c0                	mov    eax,eax
  80080f:	48 8b 4d f8          	mov    rcx,QWORD PTR [rbp-0x8]
  800813:	0f 30                	wrmsr  
  800815:	90                   	nop
  800816:	5d                   	pop    rbp
  800817:	c3                   	ret    

0000000000800818 <main>:
#include <kb.h>
#include "com.h"

int manage_proc_lock=1;
void main(unsigned int magic,void* addr)
{
  800818:	f3 0f 1e fa          	endbr64 
  80081c:	55                   	push   rbp
  80081d:	48 89 e5             	mov    rbp,rsp
  800820:	48 83 ec 60          	sub    rsp,0x60
  800824:	89 7d ac             	mov    DWORD PTR [rbp-0x54],edi
  800827:	48 89 75 a0          	mov    QWORD PTR [rbp-0x60],rsi

    struct multiboot_header* mbi=0ul;
  80082b:	48 c7 45 e0 00 00 00 	mov    QWORD PTR [rbp-0x20],0x0
  800832:	00 
    mbi=(struct multiboot_header*)addr;
  800833:	48 8b 45 a0          	mov    rax,QWORD PTR [rbp-0x60]
  800837:	48 89 45 e0          	mov    QWORD PTR [rbp-0x20],rax
    init_logging();
  80083b:	b8 00 00 00 00       	mov    eax,0x0
  800840:	e8 4a 03 00 00       	call   800b8f <init_logging>
    }
    //获取tags
    struct multiboot_tag *tag;

	unsigned size;
    size = *(unsigned long*)addr;
  800845:	48 8b 45 a0          	mov    rax,QWORD PTR [rbp-0x60]
  800849:	48 8b 00             	mov    rax,QWORD PTR [rax]
  80084c:	89 45 dc             	mov    DWORD PTR [rbp-0x24],eax
//    //printf("Announced mbi size 0x%x\n", size);
	for (tag = (struct multiboot_tag *)(addr + 8);
  80084f:	48 8b 45 a0          	mov    rax,QWORD PTR [rbp-0x60]
  800853:	48 83 c0 08          	add    rax,0x8
  800857:	48 89 45 f8          	mov    QWORD PTR [rbp-0x8],rax
  80085b:	e9 5b 02 00 00       	jmp    800abb <main+0x2a3>
		 tag->type != MULTIBOOT_TAG_TYPE_END;
		 tag = (struct multiboot_tag *)((u8 *)tag + ((tag->size + 7) & ~7)))
	{
		//printf("Tag 0x%x, Size 0x%x\n", tag->type, tag->size);
		switch (tag->type)
  800860:	48 8b 45 f8          	mov    rax,QWORD PTR [rbp-0x8]
  800864:	8b 00                	mov    eax,DWORD PTR [rax]
  800866:	83 f8 08             	cmp    eax,0x8
  800869:	0f 87 39 02 00 00    	ja     800aa8 <main+0x290>
  80086f:	89 c0                	mov    eax,eax
  800871:	48 8b 04 c5 c8 2b 81 	mov    rax,QWORD PTR [rax*8+0x812bc8]
  800878:	00 
  800879:	3e ff e0             	notrack jmp rax
			break;
		case MULTIBOOT_TAG_TYPE_BASIC_MEMINFO:
			//printf("mem_lower = %uKB, mem_upper = %uKB\n",
//				   ((struct multiboot_tag_basic_meminfo *)tag)->mem_lower,
//				   ((struct multiboot_tag_basic_meminfo *)tag)->mem_upper);
			set_high_mem_base(((struct multiboot_tag_basic_meminfo *)tag)->mem_lower);
  80087c:	48 8b 45 f8          	mov    rax,QWORD PTR [rbp-0x8]
  800880:	8b 40 08             	mov    eax,DWORD PTR [rax+0x8]
  800883:	89 c7                	mov    edi,eax
  800885:	e8 e3 07 00 00       	call   80106d <set_high_mem_base>
			break;
  80088a:	e9 19 02 00 00       	jmp    800aa8 <main+0x290>

			break;
		case MULTIBOOT_TAG_TYPE_MMAP:
		{
			//printf("mmap\n");
            for (multiboot_memory_map_t * mmap = ((struct multiboot_tag_mmap *)tag)->entries;
  80088f:	48 8b 45 f8          	mov    rax,QWORD PTR [rbp-0x8]
  800893:	48 83 c0 10          	add    rax,0x10
  800897:	48 89 45 f0          	mov    QWORD PTR [rbp-0x10],rax
  80089b:	eb 37                	jmp    8008d4 <main+0xbc>
                    (multiboot_uint8_t *)mmap < (multiboot_uint8_t *)tag + tag->size;
                    mmap = (multiboot_memory_map_t *)((unsigned long)mmap + ((struct multiboot_tag_mmap *)tag)->entry_size))
            {
                set_mem_area(mmap->addr,mmap->len,mmap->type);
  80089d:	48 8b 45 f0          	mov    rax,QWORD PTR [rbp-0x10]
  8008a1:	8b 40 10             	mov    eax,DWORD PTR [rax+0x10]
  8008a4:	89 c2                	mov    edx,eax
  8008a6:	48 8b 45 f0          	mov    rax,QWORD PTR [rbp-0x10]
  8008aa:	48 8b 48 08          	mov    rcx,QWORD PTR [rax+0x8]
  8008ae:	48 8b 45 f0          	mov    rax,QWORD PTR [rbp-0x10]
  8008b2:	48 8b 00             	mov    rax,QWORD PTR [rax]
  8008b5:	48 89 ce             	mov    rsi,rcx
  8008b8:	48 89 c7             	mov    rdi,rax
  8008bb:	e8 c4 07 00 00       	call   801084 <set_mem_area>
                    mmap = (multiboot_memory_map_t *)((unsigned long)mmap + ((struct multiboot_tag_mmap *)tag)->entry_size))
  8008c0:	48 8b 45 f8          	mov    rax,QWORD PTR [rbp-0x8]
  8008c4:	8b 40 08             	mov    eax,DWORD PTR [rax+0x8]
  8008c7:	89 c2                	mov    edx,eax
  8008c9:	48 8b 45 f0          	mov    rax,QWORD PTR [rbp-0x10]
  8008cd:	48 01 d0             	add    rax,rdx
  8008d0:	48 89 45 f0          	mov    QWORD PTR [rbp-0x10],rax
                    (multiboot_uint8_t *)mmap < (multiboot_uint8_t *)tag + tag->size;
  8008d4:	48 8b 45 f8          	mov    rax,QWORD PTR [rbp-0x8]
  8008d8:	8b 40 04             	mov    eax,DWORD PTR [rax+0x4]
  8008db:	89 c2                	mov    edx,eax
  8008dd:	48 8b 45 f8          	mov    rax,QWORD PTR [rbp-0x8]
  8008e1:	48 01 d0             	add    rax,rdx
  8008e4:	48 39 45 f0          	cmp    QWORD PTR [rbp-0x10],rax
  8008e8:	72 b3                	jb     80089d <main+0x85>
            }

		}
		break;
  8008ea:	e9 b9 01 00 00       	jmp    800aa8 <main+0x290>
		case MULTIBOOT_TAG_TYPE_FRAMEBUFFER:
		{
			multiboot_uint32_t color;
			unsigned i;
			struct multiboot_tag_framebuffer *tagfb = (struct multiboot_tag_framebuffer *)tag;
  8008ef:	48 8b 45 f8          	mov    rax,QWORD PTR [rbp-0x8]
  8008f3:	48 89 45 d0          	mov    QWORD PTR [rbp-0x30],rax
			void *fb = (void *) FRAMEBUFFER_ADDR;
  8008f7:	48 c7 45 c8 00 00 00 	mov    QWORD PTR [rbp-0x38],0x40000000
  8008fe:	40 
			set_framebuffer(*tagfb);
  8008ff:	48 83 ec 08          	sub    rsp,0x8
  800903:	48 8b 45 d0          	mov    rax,QWORD PTR [rbp-0x30]
  800907:	ff 70 20             	push   QWORD PTR [rax+0x20]
  80090a:	ff 70 18             	push   QWORD PTR [rax+0x18]
  80090d:	ff 70 10             	push   QWORD PTR [rax+0x10]
  800910:	ff 70 08             	push   QWORD PTR [rax+0x8]
  800913:	ff 30                	push   QWORD PTR [rax]
  800915:	e8 56 4d 00 00       	call   805670 <set_framebuffer>
  80091a:	48 83 c4 30          	add    rsp,0x30

            init_framebuffer();
  80091e:	b8 00 00 00 00       	mov    eax,0x0
  800923:	e8 b3 4b 00 00       	call   8054db <init_framebuffer>
			switch (tagfb->common.framebuffer_type)
  800928:	48 8b 45 d0          	mov    rax,QWORD PTR [rbp-0x30]
  80092c:	0f b6 40 1d          	movzx  eax,BYTE PTR [rax+0x1d]
  800930:	0f b6 c0             	movzx  eax,al
  800933:	83 f8 02             	cmp    eax,0x2
  800936:	0f 84 5a 01 00 00    	je     800a96 <main+0x27e>
  80093c:	83 f8 02             	cmp    eax,0x2
  80093f:	0f 8f 5a 01 00 00    	jg     800a9f <main+0x287>
  800945:	85 c0                	test   eax,eax
  800947:	74 0e                	je     800957 <main+0x13f>
  800949:	83 f8 01             	cmp    eax,0x1
  80094c:	0f 84 15 01 00 00    	je     800a67 <main+0x24f>
  800952:	e9 48 01 00 00       	jmp    800a9f <main+0x287>
			case MULTIBOOT_FRAMEBUFFER_TYPE_INDEXED:
			{
				unsigned best_distance, distance;
				struct multiboot_color *palette;

				palette = tagfb->framebuffer_palette;
  800957:	48 8b 45 d0          	mov    rax,QWORD PTR [rbp-0x30]
  80095b:	48 83 c0 22          	add    rax,0x22
  80095f:	48 89 45 b8          	mov    QWORD PTR [rbp-0x48],rax

				color = 0;
  800963:	c7 45 c4 00 00 00 00 	mov    DWORD PTR [rbp-0x3c],0x0
				best_distance = 4 * 256 * 256;
  80096a:	c7 45 e8 00 00 04 00 	mov    DWORD PTR [rbp-0x18],0x40000

				for (i = 0; i < tagfb->framebuffer_palette_num_colors; i++)
  800971:	c7 45 ec 00 00 00 00 	mov    DWORD PTR [rbp-0x14],0x0
  800978:	e9 d4 00 00 00       	jmp    800a51 <main+0x239>
				{
					distance = (0xff - palette[i].blue) * (0xff - palette[i].blue) + palette[i].red * palette[i].red + palette[i].green * palette[i].green;
  80097d:	8b 55 ec             	mov    edx,DWORD PTR [rbp-0x14]
  800980:	48 89 d0             	mov    rax,rdx
  800983:	48 01 c0             	add    rax,rax
  800986:	48 01 c2             	add    rdx,rax
  800989:	48 8b 45 b8          	mov    rax,QWORD PTR [rbp-0x48]
  80098d:	48 01 d0             	add    rax,rdx
  800990:	0f b6 40 02          	movzx  eax,BYTE PTR [rax+0x2]
  800994:	0f b6 c0             	movzx  eax,al
  800997:	ba ff 00 00 00       	mov    edx,0xff
  80099c:	89 d1                	mov    ecx,edx
  80099e:	29 c1                	sub    ecx,eax
  8009a0:	8b 55 ec             	mov    edx,DWORD PTR [rbp-0x14]
  8009a3:	48 89 d0             	mov    rax,rdx
  8009a6:	48 01 c0             	add    rax,rax
  8009a9:	48 01 c2             	add    rdx,rax
  8009ac:	48 8b 45 b8          	mov    rax,QWORD PTR [rbp-0x48]
  8009b0:	48 01 d0             	add    rax,rdx
  8009b3:	0f b6 40 02          	movzx  eax,BYTE PTR [rax+0x2]
  8009b7:	0f b6 d0             	movzx  edx,al
  8009ba:	b8 ff 00 00 00       	mov    eax,0xff
  8009bf:	29 d0                	sub    eax,edx
  8009c1:	89 ce                	mov    esi,ecx
  8009c3:	0f af f0             	imul   esi,eax
  8009c6:	8b 55 ec             	mov    edx,DWORD PTR [rbp-0x14]
  8009c9:	48 89 d0             	mov    rax,rdx
  8009cc:	48 01 c0             	add    rax,rax
  8009cf:	48 01 c2             	add    rdx,rax
  8009d2:	48 8b 45 b8          	mov    rax,QWORD PTR [rbp-0x48]
  8009d6:	48 01 d0             	add    rax,rdx
  8009d9:	0f b6 00             	movzx  eax,BYTE PTR [rax]
  8009dc:	0f b6 c8             	movzx  ecx,al
  8009df:	8b 55 ec             	mov    edx,DWORD PTR [rbp-0x14]
  8009e2:	48 89 d0             	mov    rax,rdx
  8009e5:	48 01 c0             	add    rax,rax
  8009e8:	48 01 c2             	add    rdx,rax
  8009eb:	48 8b 45 b8          	mov    rax,QWORD PTR [rbp-0x48]
  8009ef:	48 01 d0             	add    rax,rdx
  8009f2:	0f b6 00             	movzx  eax,BYTE PTR [rax]
  8009f5:	0f b6 c0             	movzx  eax,al
  8009f8:	0f af c1             	imul   eax,ecx
  8009fb:	01 c6                	add    esi,eax
  8009fd:	8b 55 ec             	mov    edx,DWORD PTR [rbp-0x14]
  800a00:	48 89 d0             	mov    rax,rdx
  800a03:	48 01 c0             	add    rax,rax
  800a06:	48 01 c2             	add    rdx,rax
  800a09:	48 8b 45 b8          	mov    rax,QWORD PTR [rbp-0x48]
  800a0d:	48 01 d0             	add    rax,rdx
  800a10:	0f b6 40 01          	movzx  eax,BYTE PTR [rax+0x1]
  800a14:	0f b6 c8             	movzx  ecx,al
  800a17:	8b 55 ec             	mov    edx,DWORD PTR [rbp-0x14]
  800a1a:	48 89 d0             	mov    rax,rdx
  800a1d:	48 01 c0             	add    rax,rax
  800a20:	48 01 c2             	add    rdx,rax
  800a23:	48 8b 45 b8          	mov    rax,QWORD PTR [rbp-0x48]
  800a27:	48 01 d0             	add    rax,rdx
  800a2a:	0f b6 40 01          	movzx  eax,BYTE PTR [rax+0x1]
  800a2e:	0f b6 c0             	movzx  eax,al
  800a31:	0f af c1             	imul   eax,ecx
  800a34:	01 f0                	add    eax,esi
  800a36:	89 45 b4             	mov    DWORD PTR [rbp-0x4c],eax
					if (distance < best_distance)
  800a39:	8b 45 b4             	mov    eax,DWORD PTR [rbp-0x4c]
  800a3c:	3b 45 e8             	cmp    eax,DWORD PTR [rbp-0x18]
  800a3f:	73 0c                	jae    800a4d <main+0x235>
					{
						color = i;
  800a41:	8b 45 ec             	mov    eax,DWORD PTR [rbp-0x14]
  800a44:	89 45 c4             	mov    DWORD PTR [rbp-0x3c],eax
						best_distance = distance;
  800a47:	8b 45 b4             	mov    eax,DWORD PTR [rbp-0x4c]
  800a4a:	89 45 e8             	mov    DWORD PTR [rbp-0x18],eax
				for (i = 0; i < tagfb->framebuffer_palette_num_colors; i++)
  800a4d:	83 45 ec 01          	add    DWORD PTR [rbp-0x14],0x1
  800a51:	48 8b 45 d0          	mov    rax,QWORD PTR [rbp-0x30]
  800a55:	0f b7 40 20          	movzx  eax,WORD PTR [rax+0x20]
  800a59:	0f b7 c0             	movzx  eax,ax
  800a5c:	39 45 ec             	cmp    DWORD PTR [rbp-0x14],eax
  800a5f:	0f 82 18 ff ff ff    	jb     80097d <main+0x165>
					}
				}
			}
			break;
  800a65:	eb 40                	jmp    800aa7 <main+0x28f>

			case MULTIBOOT_FRAMEBUFFER_TYPE_RGB:
				color = ((1 << tagfb->framebuffer_blue_mask_size) - 1) << tagfb->framebuffer_blue_field_position;
  800a67:	48 8b 45 d0          	mov    rax,QWORD PTR [rbp-0x30]
  800a6b:	0f b6 40 25          	movzx  eax,BYTE PTR [rax+0x25]
  800a6f:	0f b6 c0             	movzx  eax,al
  800a72:	ba 01 00 00 00       	mov    edx,0x1
  800a77:	89 c1                	mov    ecx,eax
  800a79:	d3 e2                	shl    edx,cl
  800a7b:	89 d0                	mov    eax,edx
  800a7d:	8d 50 ff             	lea    edx,[rax-0x1]
  800a80:	48 8b 45 d0          	mov    rax,QWORD PTR [rbp-0x30]
  800a84:	0f b6 40 24          	movzx  eax,BYTE PTR [rax+0x24]
  800a88:	0f b6 c0             	movzx  eax,al
  800a8b:	89 c1                	mov    ecx,eax
  800a8d:	d3 e2                	shl    edx,cl
  800a8f:	89 d0                	mov    eax,edx
  800a91:	89 45 c4             	mov    DWORD PTR [rbp-0x3c],eax
				break;
  800a94:	eb 11                	jmp    800aa7 <main+0x28f>

			case MULTIBOOT_FRAMEBUFFER_TYPE_EGA_TEXT:
				color = '\\' | 0x0100;
  800a96:	c7 45 c4 5c 01 00 00 	mov    DWORD PTR [rbp-0x3c],0x15c
				break;
  800a9d:	eb 08                	jmp    800aa7 <main+0x28f>

			default:
				color = 0xffffffff;
  800a9f:	c7 45 c4 ff ff ff ff 	mov    DWORD PTR [rbp-0x3c],0xffffffff
				break;
  800aa6:	90                   	nop
			}

			break;
  800aa7:	90                   	nop
		 tag = (struct multiboot_tag *)((u8 *)tag + ((tag->size + 7) & ~7)))
  800aa8:	48 8b 45 f8          	mov    rax,QWORD PTR [rbp-0x8]
  800aac:	8b 40 04             	mov    eax,DWORD PTR [rax+0x4]
  800aaf:	83 c0 07             	add    eax,0x7
  800ab2:	89 c0                	mov    eax,eax
  800ab4:	83 e0 f8             	and    eax,0xfffffff8
  800ab7:	48 01 45 f8          	add    QWORD PTR [rbp-0x8],rax
		 tag->type != MULTIBOOT_TAG_TYPE_END;
  800abb:	48 8b 45 f8          	mov    rax,QWORD PTR [rbp-0x8]
  800abf:	8b 00                	mov    eax,DWORD PTR [rax]
  800ac1:	85 c0                	test   eax,eax
  800ac3:	0f 85 97 fd ff ff    	jne    800860 <main+0x48>
		}
		}
	}
	tag = (struct multiboot_tag *)((multiboot_uint8_t *)tag + ((tag->size + 7) & ~7));
  800ac9:	48 8b 45 f8          	mov    rax,QWORD PTR [rbp-0x8]
  800acd:	8b 40 04             	mov    eax,DWORD PTR [rax+0x4]
  800ad0:	83 c0 07             	add    eax,0x7
  800ad3:	89 c0                	mov    eax,eax
  800ad5:	83 e0 f8             	and    eax,0xfffffff8
  800ad8:	48 01 45 f8          	add    QWORD PTR [rbp-0x8],rax
	//printf("Total mbi size 0x%x\n", (unsigned)tag - addr);
	char disk_count=*(char*)0x475;
  800adc:	b8 75 04 00 00       	mov    eax,0x475
  800ae1:	0f b6 00             	movzx  eax,BYTE PTR [rax]
  800ae4:	88 45 db             	mov    BYTE PTR [rbp-0x25],al
	//printf("disk count:%d\n",disk_count);
    init_font();
  800ae7:	b8 00 00 00 00       	mov    eax,0x0
  800aec:	e8 a9 4a 00 00       	call   80559a <init_font>
    //初始化区域
    //fill_rect(0,0,100,100,255);
    print("gamessis os loaded.\nkernel:>");
  800af1:	bf 88 2b 81 00       	mov    edi,0x812b88
  800af6:	e8 38 4f 00 00       	call   805a33 <print>
    init_int();
  800afb:	b8 00 00 00 00       	mov    eax,0x0
  800b00:	e8 fb f4 ff ff       	call   800000 <init_int>
    print("int loaded.\n");
  800b05:	bf a5 2b 81 00       	mov    edi,0x812ba5
  800b0a:	e8 24 4f 00 00       	call   805a33 <print>
//    set_tss(0x400000,0x400000,0x400000,0x400000,0x400000,0x400000,0x400000,0x400000,0x400000,0x400000);
    init_memory();
  800b0f:	b8 00 00 00 00       	mov    eax,0x0
  800b14:	e8 22 08 00 00       	call   80133b <init_memory>
    init_com(PORT_COM1);
  800b19:	bf f8 03 00 00       	mov    edi,0x3f8
  800b1e:	e8 c1 9a 00 00       	call   80a5e4 <init_com>
    com_puts("gamessis os loaded.",PORT_COM1);
  800b23:	be f8 03 00 00       	mov    esi,0x3f8
  800b28:	bf b2 2b 81 00       	mov    edi,0x812bb2
  800b2d:	e8 fe 9b 00 00       	call   80a730 <com_puts>
	init_paging();
  800b32:	b8 00 00 00 00       	mov    eax,0x0
  800b37:	e8 26 05 00 00       	call   801062 <init_paging>
 	init_gdt();
  800b3c:	b8 00 00 00 00       	mov    eax,0x0
  800b41:	e8 77 3d 00 00       	call   8048bd <init_gdt>
    init_drvdev_man();
  800b46:	b8 00 00 00 00       	mov    eax,0x0
  800b4b:	e8 59 18 00 00       	call   8023a9 <init_drvdev_man>
    init_proc();
  800b50:	b8 00 00 00 00       	mov    eax,0x0
  800b55:	e8 3a 27 00 00       	call   803294 <init_proc>
    //自带驱动
    //init_tty();
    init_kb();
  800b5a:	b8 00 00 00 00       	mov    eax,0x0
  800b5f:	e8 e0 5d 00 00       	call   806944 <init_kb>
//    init_disk();

    sti();
  800b64:	fb                   	sti    
    DISK1_FAT32_FS_init();
  800b65:	b8 00 00 00 00       	mov    eax,0x0
  800b6a:	e8 db 90 00 00       	call   809c4a <DISK1_FAT32_FS_init>
//    blk_dev* p=dev_tree[DEVTREE_BLKDEVI];
//    mount_fs("fat16",p->par,vmalloc());

    while (1)
    {
        char c=sys_getkbc();
  800b6f:	b8 00 00 00 00       	mov    eax,0x0
  800b74:	e8 fe 5e 00 00       	call   806a77 <sys_getkbc>
  800b79:	88 45 da             	mov    BYTE PTR [rbp-0x26],al
        if(c!=-1)
  800b7c:	80 7d da ff          	cmp    BYTE PTR [rbp-0x26],0xff
  800b80:	74 ed                	je     800b6f <main+0x357>
            putchar(c);
  800b82:	0f be 45 da          	movsx  eax,BYTE PTR [rbp-0x26]
  800b86:	89 c7                	mov    edi,eax
  800b88:	e8 41 01 00 00       	call   800cce <putchar>
    {
  800b8d:	eb e0                	jmp    800b6f <main+0x357>

0000000000800b8f <init_logging>:
static unsigned char* video;
static int xpos,ypos;
/* 将整数 D 转换为字符串并保存在 BUF 中。如果 BASE 为 'd'，则 D 为十进制，如果 BASE 为 'x'，则 D 为十六进制。 */

int init_logging()
{
  800b8f:	f3 0f 1e fa          	endbr64 
  800b93:	55                   	push   rbp
  800b94:	48 89 e5             	mov    rbp,rsp
    video=0xb8000;
  800b97:	48 c7 05 5e f4 bf ff 	mov    QWORD PTR [rip+0xffffffffffbff45e],0xb8000        # 400000 <video>
  800b9e:	00 80 0b 00 
    xpos=0;
  800ba2:	c7 05 5c f4 bf ff 00 	mov    DWORD PTR [rip+0xffffffffffbff45c],0x0        # 400008 <xpos>
  800ba9:	00 00 00 
    ypos=0;
  800bac:	c7 05 56 f4 bf ff 00 	mov    DWORD PTR [rip+0xffffffffffbff456],0x0        # 40000c <ypos>
  800bb3:	00 00 00 
}
  800bb6:	90                   	nop
  800bb7:	5d                   	pop    rbp
  800bb8:	c3                   	ret    

0000000000800bb9 <itoa>:

static void itoa (char *buf, int base, int d)
{
  800bb9:	f3 0f 1e fa          	endbr64 
  800bbd:	55                   	push   rbp
  800bbe:	48 89 e5             	mov    rbp,rsp
  800bc1:	48 89 7d c8          	mov    QWORD PTR [rbp-0x38],rdi
  800bc5:	89 75 c4             	mov    DWORD PTR [rbp-0x3c],esi
  800bc8:	89 55 c0             	mov    DWORD PTR [rbp-0x40],edx
    char *p = buf;
  800bcb:	48 8b 45 c8          	mov    rax,QWORD PTR [rbp-0x38]
  800bcf:	48 89 45 f8          	mov    QWORD PTR [rbp-0x8],rax
    char *p1, *p2;
    unsigned long ud = d;
  800bd3:	8b 45 c0             	mov    eax,DWORD PTR [rbp-0x40]
  800bd6:	48 98                	cdqe   
  800bd8:	48 89 45 e0          	mov    QWORD PTR [rbp-0x20],rax
    int divisor = 10;
  800bdc:	c7 45 dc 0a 00 00 00 	mov    DWORD PTR [rbp-0x24],0xa
 
    /* 如果指定了 %d 并且 D 是负数，在开始添上负号。 */
    if (base == 'd' && d < 0)
  800be3:	83 7d c4 64          	cmp    DWORD PTR [rbp-0x3c],0x64
  800be7:	75 27                	jne    800c10 <itoa+0x57>
  800be9:	83 7d c0 00          	cmp    DWORD PTR [rbp-0x40],0x0
  800bed:	79 21                	jns    800c10 <itoa+0x57>
    {
        *p++ = '-';
  800bef:	48 8b 45 f8          	mov    rax,QWORD PTR [rbp-0x8]
  800bf3:	48 8d 50 01          	lea    rdx,[rax+0x1]
  800bf7:	48 89 55 f8          	mov    QWORD PTR [rbp-0x8],rdx
  800bfb:	c6 00 2d             	mov    BYTE PTR [rax],0x2d
        buf++;
  800bfe:	48 83 45 c8 01       	add    QWORD PTR [rbp-0x38],0x1
        ud = -d;
  800c03:	8b 45 c0             	mov    eax,DWORD PTR [rbp-0x40]
  800c06:	f7 d8                	neg    eax
  800c08:	48 98                	cdqe   
  800c0a:	48 89 45 e0          	mov    QWORD PTR [rbp-0x20],rax
  800c0e:	eb 0d                	jmp    800c1d <itoa+0x64>
    }
    else if (base == 'x')
  800c10:	83 7d c4 78          	cmp    DWORD PTR [rbp-0x3c],0x78
  800c14:	75 07                	jne    800c1d <itoa+0x64>
        divisor = 16;
  800c16:	c7 45 dc 10 00 00 00 	mov    DWORD PTR [rbp-0x24],0x10
 
    /* 用 DIVISOR 去除 UD 直到 UD == 0。 */
    do
    {
        int remainder = ud % divisor;
  800c1d:	8b 45 dc             	mov    eax,DWORD PTR [rbp-0x24]
  800c20:	48 63 c8             	movsxd rcx,eax
  800c23:	48 8b 45 e0          	mov    rax,QWORD PTR [rbp-0x20]
  800c27:	ba 00 00 00 00       	mov    edx,0x0
  800c2c:	48 f7 f1             	div    rcx
  800c2f:	48 89 d0             	mov    rax,rdx
  800c32:	89 45 d8             	mov    DWORD PTR [rbp-0x28],eax
 
        *p++ = (remainder < 10) ? remainder + '0' : remainder + 'a' - 10;
  800c35:	83 7d d8 09          	cmp    DWORD PTR [rbp-0x28],0x9
  800c39:	7f 0a                	jg     800c45 <itoa+0x8c>
  800c3b:	8b 45 d8             	mov    eax,DWORD PTR [rbp-0x28]
  800c3e:	83 c0 30             	add    eax,0x30
  800c41:	89 c1                	mov    ecx,eax
  800c43:	eb 08                	jmp    800c4d <itoa+0x94>
  800c45:	8b 45 d8             	mov    eax,DWORD PTR [rbp-0x28]
  800c48:	83 c0 57             	add    eax,0x57
  800c4b:	89 c1                	mov    ecx,eax
  800c4d:	48 8b 45 f8          	mov    rax,QWORD PTR [rbp-0x8]
  800c51:	48 8d 50 01          	lea    rdx,[rax+0x1]
  800c55:	48 89 55 f8          	mov    QWORD PTR [rbp-0x8],rdx
  800c59:	88 08                	mov    BYTE PTR [rax],cl
    }
    while (ud /= divisor);
  800c5b:	8b 45 dc             	mov    eax,DWORD PTR [rbp-0x24]
  800c5e:	48 63 f0             	movsxd rsi,eax
  800c61:	48 8b 45 e0          	mov    rax,QWORD PTR [rbp-0x20]
  800c65:	ba 00 00 00 00       	mov    edx,0x0
  800c6a:	48 f7 f6             	div    rsi
  800c6d:	48 89 45 e0          	mov    QWORD PTR [rbp-0x20],rax
  800c71:	48 83 7d e0 00       	cmp    QWORD PTR [rbp-0x20],0x0
  800c76:	75 a5                	jne    800c1d <itoa+0x64>
 
    /* 在字符串尾添上终结符。 */
    *p = 0;
  800c78:	48 8b 45 f8          	mov    rax,QWORD PTR [rbp-0x8]
  800c7c:	c6 00 00             	mov    BYTE PTR [rax],0x0
 
    /* 反转 BUF。 */
    p1 = buf;
  800c7f:	48 8b 45 c8          	mov    rax,QWORD PTR [rbp-0x38]
  800c83:	48 89 45 f0          	mov    QWORD PTR [rbp-0x10],rax
    p2 = p - 1;
  800c87:	48 8b 45 f8          	mov    rax,QWORD PTR [rbp-0x8]
  800c8b:	48 83 e8 01          	sub    rax,0x1
  800c8f:	48 89 45 e8          	mov    QWORD PTR [rbp-0x18],rax
    while (p1 < p2)
  800c93:	eb 2b                	jmp    800cc0 <itoa+0x107>
    {
        char tmp = *p1;
  800c95:	48 8b 45 f0          	mov    rax,QWORD PTR [rbp-0x10]
  800c99:	0f b6 00             	movzx  eax,BYTE PTR [rax]
  800c9c:	88 45 d7             	mov    BYTE PTR [rbp-0x29],al
        *p1 = *p2;
  800c9f:	48 8b 45 e8          	mov    rax,QWORD PTR [rbp-0x18]
  800ca3:	0f b6 10             	movzx  edx,BYTE PTR [rax]
  800ca6:	48 8b 45 f0          	mov    rax,QWORD PTR [rbp-0x10]
  800caa:	88 10                	mov    BYTE PTR [rax],dl
        *p2 = tmp;
  800cac:	48 8b 45 e8          	mov    rax,QWORD PTR [rbp-0x18]
  800cb0:	0f b6 55 d7          	movzx  edx,BYTE PTR [rbp-0x29]
  800cb4:	88 10                	mov    BYTE PTR [rax],dl
        p1++;
  800cb6:	48 83 45 f0 01       	add    QWORD PTR [rbp-0x10],0x1
        p2--;
  800cbb:	48 83 6d e8 01       	sub    QWORD PTR [rbp-0x18],0x1
    while (p1 < p2)
  800cc0:	48 8b 45 f0          	mov    rax,QWORD PTR [rbp-0x10]
  800cc4:	48 3b 45 e8          	cmp    rax,QWORD PTR [rbp-0x18]
  800cc8:	72 cb                	jb     800c95 <itoa+0xdc>
    }
}
  800cca:	90                   	nop
  800ccb:	90                   	nop
  800ccc:	5d                   	pop    rbp
  800ccd:	c3                   	ret    

0000000000800cce <putchar>:
 
/* 在屏幕上输出字符 C 。 */
void putchar (char c)
{
  800cce:	f3 0f 1e fa          	endbr64 
  800cd2:	55                   	push   rbp
  800cd3:	48 89 e5             	mov    rbp,rsp
  800cd6:	48 83 ec 20          	sub    rsp,0x20
  800cda:	89 f8                	mov    eax,edi
  800cdc:	88 45 ec             	mov    BYTE PTR [rbp-0x14],al
    char s[2]={c,'\0'};
  800cdf:	0f b6 45 ec          	movzx  eax,BYTE PTR [rbp-0x14]
  800ce3:	88 45 fe             	mov    BYTE PTR [rbp-0x2],al
  800ce6:	c6 45 ff 00          	mov    BYTE PTR [rbp-0x1],0x0
    print(s);
  800cea:	48 8d 45 fe          	lea    rax,[rbp-0x2]
  800cee:	48 89 c7             	mov    rdi,rax
  800cf1:	e8 3d 4d 00 00       	call   805a33 <print>
    *(video + (xpos + ypos * COLUMNS) * 2 + 1) = ATTRIBUTE;
 
    xpos++;
    if (xpos >= COLUMNS)
        goto newline;
}
  800cf6:	c9                   	leave  
  800cf7:	c3                   	ret    

0000000000800cf8 <printf>:
 
/* 格式化字符串并在屏幕上输出，就像 libc 函数 printf 一样。 */
void printf (const char *format, ...)
{
  800cf8:	f3 0f 1e fa          	endbr64 
  800cfc:	55                   	push   rbp
  800cfd:	48 89 e5             	mov    rbp,rsp
  800d00:	48 81 ec f0 00 00 00 	sub    rsp,0xf0
  800d07:	48 89 bd 18 ff ff ff 	mov    QWORD PTR [rbp-0xe8],rdi
  800d0e:	48 89 b5 58 ff ff ff 	mov    QWORD PTR [rbp-0xa8],rsi
  800d15:	48 89 95 60 ff ff ff 	mov    QWORD PTR [rbp-0xa0],rdx
  800d1c:	48 89 8d 68 ff ff ff 	mov    QWORD PTR [rbp-0x98],rcx
  800d23:	4c 89 85 70 ff ff ff 	mov    QWORD PTR [rbp-0x90],r8
  800d2a:	4c 89 8d 78 ff ff ff 	mov    QWORD PTR [rbp-0x88],r9
  800d31:	84 c0                	test   al,al
  800d33:	74 20                	je     800d55 <printf+0x5d>
  800d35:	0f 29 45 80          	movaps XMMWORD PTR [rbp-0x80],xmm0
  800d39:	0f 29 4d 90          	movaps XMMWORD PTR [rbp-0x70],xmm1
  800d3d:	0f 29 55 a0          	movaps XMMWORD PTR [rbp-0x60],xmm2
  800d41:	0f 29 5d b0          	movaps XMMWORD PTR [rbp-0x50],xmm3
  800d45:	0f 29 65 c0          	movaps XMMWORD PTR [rbp-0x40],xmm4
  800d49:	0f 29 6d d0          	movaps XMMWORD PTR [rbp-0x30],xmm5
  800d4d:	0f 29 75 e0          	movaps XMMWORD PTR [rbp-0x20],xmm6
  800d51:	0f 29 7d f0          	movaps XMMWORD PTR [rbp-0x10],xmm7
    char **arg = (char **) &format;
  800d55:	48 8d 85 18 ff ff ff 	lea    rax,[rbp-0xe8]
  800d5c:	48 89 85 48 ff ff ff 	mov    QWORD PTR [rbp-0xb8],rax
    char c;
    char buf[20];
 
    arg++;
  800d63:	48 83 85 48 ff ff ff 	add    QWORD PTR [rbp-0xb8],0x8
  800d6a:	08 
 
    while ((c = *format++) != 0)
  800d6b:	e9 29 01 00 00       	jmp    800e99 <printf+0x1a1>
    {
        if (c != '%')
  800d70:	80 bd 3f ff ff ff 25 	cmp    BYTE PTR [rbp-0xc1],0x25
  800d77:	74 13                	je     800d8c <printf+0x94>
            putchar (c);
  800d79:	0f be 85 3f ff ff ff 	movsx  eax,BYTE PTR [rbp-0xc1]
  800d80:	89 c7                	mov    edi,eax
  800d82:	e8 47 ff ff ff       	call   800cce <putchar>
  800d87:	e9 0d 01 00 00       	jmp    800e99 <printf+0x1a1>
        else
        {
            char *p;
 
            c = *format++;
  800d8c:	48 8b 85 18 ff ff ff 	mov    rax,QWORD PTR [rbp-0xe8]
  800d93:	48 8d 50 01          	lea    rdx,[rax+0x1]
  800d97:	48 89 95 18 ff ff ff 	mov    QWORD PTR [rbp-0xe8],rdx
  800d9e:	0f b6 00             	movzx  eax,BYTE PTR [rax]
  800da1:	88 85 3f ff ff ff    	mov    BYTE PTR [rbp-0xc1],al
            switch (c)
  800da7:	0f be 85 3f ff ff ff 	movsx  eax,BYTE PTR [rbp-0xc1]
  800dae:	83 f8 78             	cmp    eax,0x78
  800db1:	74 26                	je     800dd9 <printf+0xe1>
  800db3:	83 f8 78             	cmp    eax,0x78
  800db6:	0f 8f be 00 00 00    	jg     800e7a <printf+0x182>
  800dbc:	83 f8 75             	cmp    eax,0x75
  800dbf:	74 18                	je     800dd9 <printf+0xe1>
  800dc1:	83 f8 75             	cmp    eax,0x75
  800dc4:	0f 8f b0 00 00 00    	jg     800e7a <printf+0x182>
  800dca:	83 f8 64             	cmp    eax,0x64
  800dcd:	74 0a                	je     800dd9 <printf+0xe1>
  800dcf:	83 f8 73             	cmp    eax,0x73
  800dd2:	74 41                	je     800e15 <printf+0x11d>
  800dd4:	e9 a1 00 00 00       	jmp    800e7a <printf+0x182>
            {
            case 'd':
            case 'u':
            case 'x':
                itoa (buf, c, *((int *) arg++));
  800dd9:	48 8b 85 48 ff ff ff 	mov    rax,QWORD PTR [rbp-0xb8]
  800de0:	48 8d 50 08          	lea    rdx,[rax+0x8]
  800de4:	48 89 95 48 ff ff ff 	mov    QWORD PTR [rbp-0xb8],rdx
  800deb:	8b 10                	mov    edx,DWORD PTR [rax]
  800ded:	0f be 8d 3f ff ff ff 	movsx  ecx,BYTE PTR [rbp-0xc1]
  800df4:	48 8d 85 20 ff ff ff 	lea    rax,[rbp-0xe0]
  800dfb:	89 ce                	mov    esi,ecx
  800dfd:	48 89 c7             	mov    rdi,rax
  800e00:	e8 b4 fd ff ff       	call   800bb9 <itoa>
                p = buf;
  800e05:	48 8d 85 20 ff ff ff 	lea    rax,[rbp-0xe0]
  800e0c:	48 89 85 40 ff ff ff 	mov    QWORD PTR [rbp-0xc0],rax
                goto string;
  800e13:	eb 34                	jmp    800e49 <printf+0x151>
                break;
 
            case 's':
                p = *arg++;
  800e15:	48 8b 85 48 ff ff ff 	mov    rax,QWORD PTR [rbp-0xb8]
  800e1c:	48 8d 50 08          	lea    rdx,[rax+0x8]
  800e20:	48 89 95 48 ff ff ff 	mov    QWORD PTR [rbp-0xb8],rdx
  800e27:	48 8b 00             	mov    rax,QWORD PTR [rax]
  800e2a:	48 89 85 40 ff ff ff 	mov    QWORD PTR [rbp-0xc0],rax
                if (! p)
  800e31:	48 83 bd 40 ff ff ff 	cmp    QWORD PTR [rbp-0xc0],0x0
  800e38:	00 
  800e39:	75 0d                	jne    800e48 <printf+0x150>
                    p = "(null)";
  800e3b:	48 c7 85 40 ff ff ff 	mov    QWORD PTR [rbp-0xc0],0x812c10
  800e42:	10 2c 81 00 
  800e46:	eb 22                	jmp    800e6a <printf+0x172>
 
string:
  800e48:	90                   	nop
                while (*p)
  800e49:	eb 1f                	jmp    800e6a <printf+0x172>
                    putchar (*p++);
  800e4b:	48 8b 85 40 ff ff ff 	mov    rax,QWORD PTR [rbp-0xc0]
  800e52:	48 8d 50 01          	lea    rdx,[rax+0x1]
  800e56:	48 89 95 40 ff ff ff 	mov    QWORD PTR [rbp-0xc0],rdx
  800e5d:	0f b6 00             	movzx  eax,BYTE PTR [rax]
  800e60:	0f be c0             	movsx  eax,al
  800e63:	89 c7                	mov    edi,eax
  800e65:	e8 64 fe ff ff       	call   800cce <putchar>
                while (*p)
  800e6a:	48 8b 85 40 ff ff ff 	mov    rax,QWORD PTR [rbp-0xc0]
  800e71:	0f b6 00             	movzx  eax,BYTE PTR [rax]
  800e74:	84 c0                	test   al,al
  800e76:	75 d3                	jne    800e4b <printf+0x153>
                break;
  800e78:	eb 1f                	jmp    800e99 <printf+0x1a1>
 
            default:
                putchar (*((int *) arg++));
  800e7a:	48 8b 85 48 ff ff ff 	mov    rax,QWORD PTR [rbp-0xb8]
  800e81:	48 8d 50 08          	lea    rdx,[rax+0x8]
  800e85:	48 89 95 48 ff ff ff 	mov    QWORD PTR [rbp-0xb8],rdx
  800e8c:	8b 00                	mov    eax,DWORD PTR [rax]
  800e8e:	0f be c0             	movsx  eax,al
  800e91:	89 c7                	mov    edi,eax
  800e93:	e8 36 fe ff ff       	call   800cce <putchar>
                break;
  800e98:	90                   	nop
    while ((c = *format++) != 0)
  800e99:	48 8b 85 18 ff ff ff 	mov    rax,QWORD PTR [rbp-0xe8]
  800ea0:	48 8d 50 01          	lea    rdx,[rax+0x1]
  800ea4:	48 89 95 18 ff ff ff 	mov    QWORD PTR [rbp-0xe8],rdx
  800eab:	0f b6 00             	movzx  eax,BYTE PTR [rax]
  800eae:	88 85 3f ff ff ff    	mov    BYTE PTR [rbp-0xc1],al
  800eb4:	80 bd 3f ff ff ff 00 	cmp    BYTE PTR [rbp-0xc1],0x0
  800ebb:	0f 85 af fe ff ff    	jne    800d70 <printf+0x78>
            }
        }
    }
}
  800ec1:	90                   	nop
  800ec2:	90                   	nop
  800ec3:	c9                   	leave  
  800ec4:	c3                   	ret    

0000000000800ec5 <mmap>:
//以kb为单位
int high_mem_base=1024;
int mmap_t_i=0;

stat_t mmap(addr_t pa,addr_t la,u32 attr)
{
  800ec5:	f3 0f 1e fa          	endbr64 
  800ec9:	55                   	push   rbp
  800eca:	48 89 e5             	mov    rbp,rsp
  800ecd:	48 83 ec 40          	sub    rsp,0x40
  800ed1:	48 89 7d d8          	mov    QWORD PTR [rbp-0x28],rdi
  800ed5:	48 89 75 d0          	mov    QWORD PTR [rbp-0x30],rsi
  800ed9:	89 55 cc             	mov    DWORD PTR [rbp-0x34],edx
    //从pml4中找到la所属的pml4项目，即属于第几个512GB
    page_item *pdptp= (page_item *) (pml4[la / PML4E_SIZE] & (~0xff));//指向的pdpt表
  800edc:	48 8b 15 5d a2 00 00 	mov    rdx,QWORD PTR [rip+0xa25d]        # 80b140 <pml4>
  800ee3:	48 8b 45 d0          	mov    rax,QWORD PTR [rbp-0x30]
  800ee7:	48 c1 e8 27          	shr    rax,0x27
  800eeb:	48 c1 e0 03          	shl    rax,0x3
  800eef:	48 01 d0             	add    rax,rdx
  800ef2:	48 8b 00             	mov    rax,QWORD PTR [rax]
  800ef5:	b0 00                	mov    al,0x0
  800ef7:	48 89 45 e8          	mov    QWORD PTR [rbp-0x18],rax
    //因为一个pml指向512gb内存，目前电脑还没有内存能达到这个大小，就不进行检查是否越界的判断

    //在这个512GB（一张pdpt表）中找到la所属的pdpt项目，找到指向的pd
    int pdpti=la%PML4E_SIZE/PDPTE_SIZE;
  800efb:	48 b8 ff ff ff ff 7f 	movabs rax,0x7fffffffff
  800f02:	00 00 00 
  800f05:	48 23 45 d0          	and    rax,QWORD PTR [rbp-0x30]
  800f09:	48 c1 e8 1e          	shr    rax,0x1e
  800f0d:	89 45 e4             	mov    DWORD PTR [rbp-0x1c],eax
    page_item* pdp= (page_item *) pdptp[pdpti];//指向的pd
  800f10:	8b 45 e4             	mov    eax,DWORD PTR [rbp-0x1c]
  800f13:	48 98                	cdqe   
  800f15:	48 8d 14 c5 00 00 00 	lea    rdx,[rax*8+0x0]
  800f1c:	00 
  800f1d:	48 8b 45 e8          	mov    rax,QWORD PTR [rbp-0x18]
  800f21:	48 01 d0             	add    rax,rdx
  800f24:	48 8b 00             	mov    rax,QWORD PTR [rax]
  800f27:	48 89 45 f8          	mov    QWORD PTR [rbp-0x8],rax
    //检查pdptp是否被占用
    if(!((unsigned long long)pdp&PAGE_PRESENT))
  800f2b:	48 8b 45 f8          	mov    rax,QWORD PTR [rbp-0x8]
  800f2f:	83 e0 01             	and    eax,0x1
  800f32:	48 85 c0             	test   rax,rax
  800f35:	75 45                	jne    800f7c <mmap+0xb7>
    {
        pdp=(page_item*)vmalloc();
  800f37:	b8 00 00 00 00       	mov    eax,0x0
  800f3c:	e8 cf 01 00 00       	call   801110 <vmalloc>
  800f41:	48 89 45 f8          	mov    QWORD PTR [rbp-0x8],rax
        memset(pdp,0,4096);
  800f45:	48 8b 45 f8          	mov    rax,QWORD PTR [rbp-0x8]
  800f49:	ba 00 10 00 00       	mov    edx,0x1000
  800f4e:	be 00 00 00 00       	mov    esi,0x0
  800f53:	48 89 c7             	mov    rdi,rax
  800f56:	e8 c5 98 00 00       	call   80a820 <memset>
        pdptp[pdpti]=(addr_t)pdp|attr;
  800f5b:	8b 4d cc             	mov    ecx,DWORD PTR [rbp-0x34]
  800f5e:	48 8b 55 f8          	mov    rdx,QWORD PTR [rbp-0x8]
  800f62:	8b 45 e4             	mov    eax,DWORD PTR [rbp-0x1c]
  800f65:	48 98                	cdqe   
  800f67:	48 8d 34 c5 00 00 00 	lea    rsi,[rax*8+0x0]
  800f6e:	00 
  800f6f:	48 8b 45 e8          	mov    rax,QWORD PTR [rbp-0x18]
  800f73:	48 01 f0             	add    rax,rsi
  800f76:	48 09 ca             	or     rdx,rcx
  800f79:	48 89 10             	mov    QWORD PTR [rax],rdx
    }
    pdp=(page_item*)((addr_t)pdp&~0xff);
  800f7c:	48 8b 45 f8          	mov    rax,QWORD PTR [rbp-0x8]
  800f80:	b0 00                	mov    al,0x0
  800f82:	48 89 45 f8          	mov    QWORD PTR [rbp-0x8],rax

    //在pd中找到la指向的pt
    page_item* pt=(page_item*)pdp[la % PDPTE_SIZE / PDE_SIZE];
  800f86:	48 8b 45 d0          	mov    rax,QWORD PTR [rbp-0x30]
  800f8a:	25 ff ff ff 3f       	and    eax,0x3fffffff
  800f8f:	48 c1 e8 15          	shr    rax,0x15
  800f93:	48 8d 14 c5 00 00 00 	lea    rdx,[rax*8+0x0]
  800f9a:	00 
  800f9b:	48 8b 45 f8          	mov    rax,QWORD PTR [rbp-0x8]
  800f9f:	48 01 d0             	add    rax,rdx
  800fa2:	48 8b 00             	mov    rax,QWORD PTR [rax]
  800fa5:	48 89 45 f0          	mov    QWORD PTR [rbp-0x10],rax
    if(!((unsigned long long)pt & PAGE_PRESENT))
  800fa9:	48 8b 45 f0          	mov    rax,QWORD PTR [rbp-0x10]
  800fad:	83 e0 01             	and    eax,0x1
  800fb0:	48 85 c0             	test   rax,rax
  800fb3:	75 4d                	jne    801002 <mmap+0x13d>
    {
        pt=(page_item*)vmalloc();
  800fb5:	b8 00 00 00 00       	mov    eax,0x0
  800fba:	e8 51 01 00 00       	call   801110 <vmalloc>
  800fbf:	48 89 45 f0          	mov    QWORD PTR [rbp-0x10],rax
        memset(pt,0,4096);
  800fc3:	48 8b 45 f0          	mov    rax,QWORD PTR [rbp-0x10]
  800fc7:	ba 00 10 00 00       	mov    edx,0x1000
  800fcc:	be 00 00 00 00       	mov    esi,0x0
  800fd1:	48 89 c7             	mov    rdi,rax
  800fd4:	e8 47 98 00 00       	call   80a820 <memset>
        pdp[la%PDPTE_SIZE/PDE_SIZE]= (addr_t)pt | attr;
  800fd9:	8b 4d cc             	mov    ecx,DWORD PTR [rbp-0x34]
  800fdc:	48 8b 55 f0          	mov    rdx,QWORD PTR [rbp-0x10]
  800fe0:	48 8b 45 d0          	mov    rax,QWORD PTR [rbp-0x30]
  800fe4:	25 ff ff ff 3f       	and    eax,0x3fffffff
  800fe9:	48 c1 e8 15          	shr    rax,0x15
  800fed:	48 8d 34 c5 00 00 00 	lea    rsi,[rax*8+0x0]
  800ff4:	00 
  800ff5:	48 8b 45 f8          	mov    rax,QWORD PTR [rbp-0x8]
  800ff9:	48 01 f0             	add    rax,rsi
  800ffc:	48 09 ca             	or     rdx,rcx
  800fff:	48 89 10             	mov    QWORD PTR [rax],rdx
    }
    pt=(page_item*)((addr_t)pt & ~0xff);
  801002:	48 8b 45 f0          	mov    rax,QWORD PTR [rbp-0x10]
  801006:	b0 00                	mov    al,0x0
  801008:	48 89 45 f0          	mov    QWORD PTR [rbp-0x10],rax

    //在pt中找到la指向的page
    pt[la % PDE_SIZE / PAGE_SIZE]=pa|attr;//映射
  80100c:	8b 45 cc             	mov    eax,DWORD PTR [rbp-0x34]
  80100f:	48 8b 55 d0          	mov    rdx,QWORD PTR [rbp-0x30]
  801013:	81 e2 ff ff 1f 00    	and    edx,0x1fffff
  801019:	48 c1 ea 0c          	shr    rdx,0xc
  80101d:	48 8d 0c d5 00 00 00 	lea    rcx,[rdx*8+0x0]
  801024:	00 
  801025:	48 8b 55 f0          	mov    rdx,QWORD PTR [rbp-0x10]
  801029:	48 01 ca             	add    rdx,rcx
  80102c:	48 0b 45 d8          	or     rax,QWORD PTR [rbp-0x28]
  801030:	48 89 02             	mov    QWORD PTR [rdx],rax
    return NORMAL;
  801033:	b8 00 00 00 00       	mov    eax,0x0
}
  801038:	c9                   	leave  
  801039:	c3                   	ret    

000000000080103a <mdemap>:

stat_t mdemap(addr_t la)
{
  80103a:	f3 0f 1e fa          	endbr64 
  80103e:	55                   	push   rbp
  80103f:	48 89 e5             	mov    rbp,rsp
  801042:	48 83 ec 10          	sub    rsp,0x10
  801046:	48 89 7d f8          	mov    QWORD PTR [rbp-0x8],rdi
    return mmap(0l,la,0);
  80104a:	48 8b 45 f8          	mov    rax,QWORD PTR [rbp-0x8]
  80104e:	ba 00 00 00 00       	mov    edx,0x0
  801053:	48 89 c6             	mov    rsi,rax
  801056:	bf 00 00 00 00       	mov    edi,0x0
  80105b:	e8 65 fe ff ff       	call   800ec5 <mmap>
}
  801060:	c9                   	leave  
  801061:	c3                   	ret    

0000000000801062 <init_paging>:
int init_paging()
{
  801062:	f3 0f 1e fa          	endbr64 
  801066:	55                   	push   rbp
  801067:	48 89 e5             	mov    rbp,rsp
    //设置第一项pdpte，也就是内核空间
//    set_1gb_pdpt(pdpt,0,PAGE_RWX);//设置PDPT0x40000000ul
//    set_page_item(pdpt+1,PD_ADDR,PAGE_PRESENT|PAGE_FOR_ALL|PAGE_RWX);

    #endif
}
  80106a:	90                   	nop
  80106b:	5d                   	pop    rbp
  80106c:	c3                   	ret    

000000000080106d <set_high_mem_base>:
void set_high_mem_base(int base)
{
  80106d:	f3 0f 1e fa          	endbr64 
  801071:	55                   	push   rbp
  801072:	48 89 e5             	mov    rbp,rsp
  801075:	89 7d fc             	mov    DWORD PTR [rbp-0x4],edi
    high_mem_base=base;
  801078:	8b 45 fc             	mov    eax,DWORD PTR [rbp-0x4]
  80107b:	89 05 d7 a0 00 00    	mov    DWORD PTR [rip+0xa0d7],eax        # 80b158 <high_mem_base>
}
  801081:	90                   	nop
  801082:	5d                   	pop    rbp
  801083:	c3                   	ret    

0000000000801084 <set_mem_area>:
void set_mem_area(unsigned long base, unsigned long len, unsigned long type)
{
  801084:	f3 0f 1e fa          	endbr64 
  801088:	55                   	push   rbp
  801089:	48 89 e5             	mov    rbp,rsp
  80108c:	48 89 7d f8          	mov    QWORD PTR [rbp-0x8],rdi
  801090:	48 89 75 f0          	mov    QWORD PTR [rbp-0x10],rsi
  801094:	48 89 55 e8          	mov    QWORD PTR [rbp-0x18],rdx
    mmap_struct[mmap_t_i].base=base;
  801098:	8b 05 82 f1 bf ff    	mov    eax,DWORD PTR [rip+0xffffffffffbff182]        # 400220 <mmap_t_i>
  80109e:	48 63 d0             	movsxd rdx,eax
  8010a1:	48 89 d0             	mov    rax,rdx
  8010a4:	48 01 c0             	add    rax,rax
  8010a7:	48 01 d0             	add    rax,rdx
  8010aa:	48 c1 e0 03          	shl    rax,0x3
  8010ae:	48 8d 90 40 00 40 00 	lea    rdx,[rax+0x400040]
  8010b5:	48 8b 45 f8          	mov    rax,QWORD PTR [rbp-0x8]
  8010b9:	48 89 02             	mov    QWORD PTR [rdx],rax
    mmap_struct[mmap_t_i].len=len;
  8010bc:	8b 05 5e f1 bf ff    	mov    eax,DWORD PTR [rip+0xffffffffffbff15e]        # 400220 <mmap_t_i>
  8010c2:	48 63 d0             	movsxd rdx,eax
  8010c5:	48 89 d0             	mov    rax,rdx
  8010c8:	48 01 c0             	add    rax,rax
  8010cb:	48 01 d0             	add    rax,rdx
  8010ce:	48 c1 e0 03          	shl    rax,0x3
  8010d2:	48 8d 90 48 00 40 00 	lea    rdx,[rax+0x400048]
  8010d9:	48 8b 45 f0          	mov    rax,QWORD PTR [rbp-0x10]
  8010dd:	48 89 02             	mov    QWORD PTR [rdx],rax
    mmap_struct[mmap_t_i++].type=type;
  8010e0:	8b 05 3a f1 bf ff    	mov    eax,DWORD PTR [rip+0xffffffffffbff13a]        # 400220 <mmap_t_i>
  8010e6:	8d 50 01             	lea    edx,[rax+0x1]
  8010e9:	89 15 31 f1 bf ff    	mov    DWORD PTR [rip+0xffffffffffbff131],edx        # 400220 <mmap_t_i>
  8010ef:	48 63 d0             	movsxd rdx,eax
  8010f2:	48 89 d0             	mov    rax,rdx
  8010f5:	48 01 c0             	add    rax,rax
  8010f8:	48 01 d0             	add    rax,rdx
  8010fb:	48 c1 e0 03          	shl    rax,0x3
  8010ff:	48 8d 90 50 00 40 00 	lea    rdx,[rax+0x400050]
  801106:	48 8b 45 e8          	mov    rax,QWORD PTR [rbp-0x18]
  80110a:	48 89 02             	mov    QWORD PTR [rdx],rax
}
  80110d:	90                   	nop
  80110e:	5d                   	pop    rbp
  80110f:	c3                   	ret    

0000000000801110 <vmalloc>:
addr_t vmalloc()
{
  801110:	f3 0f 1e fa          	endbr64 
  801114:	55                   	push   rbp
  801115:	48 89 e5             	mov    rbp,rsp
    for(int i=0;i<VMALLOC_PGN/32;i++)
  801118:	c7 45 fc 00 00 00 00 	mov    DWORD PTR [rbp-0x4],0x0
  80111f:	eb 76                	jmp    801197 <vmalloc+0x87>
    {
        for(int j=0;j<32;j++)
  801121:	c7 45 f8 00 00 00 00 	mov    DWORD PTR [rbp-0x8],0x0
  801128:	eb 63                	jmp    80118d <vmalloc+0x7d>
        {
            if(!(vmalloc_map[i]&(1<<j)))
  80112a:	8b 45 fc             	mov    eax,DWORD PTR [rbp-0x4]
  80112d:	48 98                	cdqe   
  80112f:	8b 14 85 30 00 40 00 	mov    edx,DWORD PTR [rax*4+0x400030]
  801136:	8b 45 f8             	mov    eax,DWORD PTR [rbp-0x8]
  801139:	be 01 00 00 00       	mov    esi,0x1
  80113e:	89 c1                	mov    ecx,eax
  801140:	d3 e6                	shl    esi,cl
  801142:	89 f0                	mov    eax,esi
  801144:	21 d0                	and    eax,edx
  801146:	85 c0                	test   eax,eax
  801148:	75 3f                	jne    801189 <vmalloc+0x79>
            {
                vmalloc_map[i]|=(1<<j);
  80114a:	8b 45 fc             	mov    eax,DWORD PTR [rbp-0x4]
  80114d:	48 98                	cdqe   
  80114f:	8b 14 85 30 00 40 00 	mov    edx,DWORD PTR [rax*4+0x400030]
  801156:	8b 45 f8             	mov    eax,DWORD PTR [rbp-0x8]
  801159:	be 01 00 00 00       	mov    esi,0x1
  80115e:	89 c1                	mov    ecx,eax
  801160:	d3 e6                	shl    esi,cl
  801162:	89 f0                	mov    eax,esi
  801164:	09 c2                	or     edx,eax
  801166:	8b 45 fc             	mov    eax,DWORD PTR [rbp-0x4]
  801169:	48 98                	cdqe   
  80116b:	89 14 85 30 00 40 00 	mov    DWORD PTR [rax*4+0x400030],edx
                return VMALLOC_BASE+(i*32+j)*0x1000;
  801172:	8b 45 fc             	mov    eax,DWORD PTR [rbp-0x4]
  801175:	c1 e0 05             	shl    eax,0x5
  801178:	89 c2                	mov    edx,eax
  80117a:	8b 45 f8             	mov    eax,DWORD PTR [rbp-0x8]
  80117d:	01 d0                	add    eax,edx
  80117f:	83 c0 20             	add    eax,0x20
  801182:	c1 e0 0c             	shl    eax,0xc
  801185:	48 98                	cdqe   
  801187:	eb 14                	jmp    80119d <vmalloc+0x8d>
        for(int j=0;j<32;j++)
  801189:	83 45 f8 01          	add    DWORD PTR [rbp-0x8],0x1
  80118d:	83 7d f8 1f          	cmp    DWORD PTR [rbp-0x8],0x1f
  801191:	7e 97                	jle    80112a <vmalloc+0x1a>
    for(int i=0;i<VMALLOC_PGN/32;i++)
  801193:	83 45 fc 01          	add    DWORD PTR [rbp-0x4],0x1
  801197:	83 7d fc 03          	cmp    DWORD PTR [rbp-0x4],0x3
  80119b:	7e 84                	jle    801121 <vmalloc+0x11>
            }
        }
    }
}
  80119d:	5d                   	pop    rbp
  80119e:	c3                   	ret    

000000000080119f <vmfree>:

int vmfree(addr_t ptr)
{
  80119f:	f3 0f 1e fa          	endbr64 
  8011a3:	55                   	push   rbp
  8011a4:	48 89 e5             	mov    rbp,rsp
  8011a7:	48 89 7d e8          	mov    QWORD PTR [rbp-0x18],rdi
    int num=ptr/PAGE_SIZE;
  8011ab:	48 8b 45 e8          	mov    rax,QWORD PTR [rbp-0x18]
  8011af:	48 c1 e8 0c          	shr    rax,0xc
  8011b3:	89 45 fc             	mov    DWORD PTR [rbp-0x4],eax
    int n=num/32;
  8011b6:	8b 45 fc             	mov    eax,DWORD PTR [rbp-0x4]
  8011b9:	8d 50 1f             	lea    edx,[rax+0x1f]
  8011bc:	85 c0                	test   eax,eax
  8011be:	0f 48 c2             	cmovs  eax,edx
  8011c1:	c1 f8 05             	sar    eax,0x5
  8011c4:	89 45 f8             	mov    DWORD PTR [rbp-0x8],eax
    int r=num%32;
  8011c7:	8b 45 fc             	mov    eax,DWORD PTR [rbp-0x4]
  8011ca:	99                   	cdq    
  8011cb:	c1 ea 1b             	shr    edx,0x1b
  8011ce:	01 d0                	add    eax,edx
  8011d0:	83 e0 1f             	and    eax,0x1f
  8011d3:	29 d0                	sub    eax,edx
  8011d5:	89 45 f4             	mov    DWORD PTR [rbp-0xc],eax
    vmalloc_map[n]=vmalloc_map[n]&~(unsigned int)(1<<r);
  8011d8:	8b 45 f8             	mov    eax,DWORD PTR [rbp-0x8]
  8011db:	48 98                	cdqe   
  8011dd:	8b 14 85 30 00 40 00 	mov    edx,DWORD PTR [rax*4+0x400030]
  8011e4:	8b 45 f4             	mov    eax,DWORD PTR [rbp-0xc]
  8011e7:	be 01 00 00 00       	mov    esi,0x1
  8011ec:	89 c1                	mov    ecx,eax
  8011ee:	d3 e6                	shl    esi,cl
  8011f0:	89 f0                	mov    eax,esi
  8011f2:	f7 d0                	not    eax
  8011f4:	21 c2                	and    edx,eax
  8011f6:	8b 45 f8             	mov    eax,DWORD PTR [rbp-0x8]
  8011f9:	48 98                	cdqe   
  8011fb:	89 14 85 30 00 40 00 	mov    DWORD PTR [rax*4+0x400030],edx
}
  801202:	90                   	nop
  801203:	5d                   	pop    rbp
  801204:	c3                   	ret    

0000000000801205 <page_err>:
void page_err(){
  801205:	f3 0f 1e fa          	endbr64 
  801209:	55                   	push   rbp
  80120a:	48 89 e5             	mov    rbp,rsp
  80120d:	53                   	push   rbx
  80120e:	48 83 ec 28          	sub    rsp,0x28
    asm("cli");
  801212:	fa                   	cli    
    print("page err\n");
  801213:	bf 18 2c 81 00       	mov    edi,0x812c18
  801218:	e8 16 48 00 00       	call   805a33 <print>
    unsigned long err_code=0,l_addr=0;
  80121d:	48 c7 45 e0 00 00 00 	mov    QWORD PTR [rbp-0x20],0x0
  801224:	00 
  801225:	48 c7 45 d8 00 00 00 	mov    QWORD PTR [rbp-0x28],0x0
  80122c:	00 
    asm volatile("mov 0(%%rbp),%0":"=r"(err_code));
  80122d:	48 8b 45 00          	mov    rax,QWORD PTR [rbp+0x0]
  801231:	48 89 45 e0          	mov    QWORD PTR [rbp-0x20],rax
    asm volatile("mov %%cr2,%0":"=r"(l_addr));//试图访问的地址
  801235:	0f 20 d0             	mov    rax,cr2
  801238:	48 89 45 d8          	mov    QWORD PTR [rbp-0x28],rax
    int p=err_code&1;
  80123c:	48 8b 45 e0          	mov    rax,QWORD PTR [rbp-0x20]
  801240:	83 e0 01             	and    eax,0x1
  801243:	89 45 ec             	mov    DWORD PTR [rbp-0x14],eax

    if(!p)
  801246:	83 7d ec 00          	cmp    DWORD PTR [rbp-0x14],0x0
  80124a:	75 27                	jne    801273 <page_err+0x6e>
        //accessing non-existent page
        //检查地址合法性
        if(l_addr>=MEM_END)
            ;
        //在进程的页表中申请新页
        mmap(vmalloc(),l_addr&~0xfff,PAGE_PRESENT|PAGE_RWX|PAGE_FOR_ALL);
  80124c:	48 8b 45 d8          	mov    rax,QWORD PTR [rbp-0x28]
  801250:	48 25 00 f0 ff ff    	and    rax,0xfffffffffffff000
  801256:	48 89 c3             	mov    rbx,rax
  801259:	b8 00 00 00 00       	mov    eax,0x0
  80125e:	e8 ad fe ff ff       	call   801110 <vmalloc>
  801263:	ba 07 00 00 00       	mov    edx,0x7
  801268:	48 89 de             	mov    rsi,rbx
  80126b:	48 89 c7             	mov    rdi,rax
  80126e:	e8 52 fc ff ff       	call   800ec5 <mmap>
    }
    else
    {
        //page level protection
    }
    p=err_code&2;
  801273:	48 8b 45 e0          	mov    rax,QWORD PTR [rbp-0x20]
  801277:	83 e0 02             	and    eax,0x2
  80127a:	89 45 ec             	mov    DWORD PTR [rbp-0x14],eax
    if(p)print("when writing\n");else //puts("when reading");
  80127d:	83 7d ec 00          	cmp    DWORD PTR [rbp-0x14],0x0
  801281:	74 0c                	je     80128f <page_err+0x8a>
  801283:	bf 22 2c 81 00       	mov    edi,0x812c22
  801288:	e8 a6 47 00 00       	call   805a33 <print>
  80128d:	eb 0a                	jmp    801299 <page_err+0x94>
    p=err_code&4;
  80128f:	48 8b 45 e0          	mov    rax,QWORD PTR [rbp-0x20]
  801293:	83 e0 04             	and    eax,0x4
  801296:	89 45 ec             	mov    DWORD PTR [rbp-0x14],eax
    if(!p)print("supervisor mode\n");else //puts("user mode");
  801299:	83 7d ec 00          	cmp    DWORD PTR [rbp-0x14],0x0
  80129d:	75 0c                	jne    8012ab <page_err+0xa6>
  80129f:	bf 30 2c 81 00       	mov    edi,0x812c30
  8012a4:	e8 8a 47 00 00       	call   805a33 <print>
  8012a9:	eb 0a                	jmp    8012b5 <page_err+0xb0>
    p=err_code&16;
  8012ab:	48 8b 45 e0          	mov    rax,QWORD PTR [rbp-0x20]
  8012af:	83 e0 10             	and    eax,0x10
  8012b2:	89 45 ec             	mov    DWORD PTR [rbp-0x14],eax
    if(p)print("an instruction tries to fetch\n");
  8012b5:	83 7d ec 00          	cmp    DWORD PTR [rbp-0x14],0x0
  8012b9:	74 0a                	je     8012c5 <page_err+0xc0>
  8012bb:	bf 48 2c 81 00       	mov    edi,0x812c48
  8012c0:	e8 6e 47 00 00       	call   805a33 <print>
    unsigned int addr=0;
  8012c5:	c7 45 d4 00 00 00 00 	mov    DWORD PTR [rbp-0x2c],0x0
    asm volatile("mov 8(%%ebp),%0":"=r"(addr));
  8012cc:	67 8b 45 08          	mov    eax,DWORD PTR [ebp+0x8]
  8012d0:	89 45 d4             	mov    DWORD PTR [rbp-0x2c],eax
    printf("occurred at %x(paddr), %x(laddr)\n",addr,l_addr);
  8012d3:	48 8b 55 d8          	mov    rdx,QWORD PTR [rbp-0x28]
  8012d7:	8b 45 d4             	mov    eax,DWORD PTR [rbp-0x2c]
  8012da:	89 c6                	mov    esi,eax
  8012dc:	bf 68 2c 81 00       	mov    edi,0x812c68
  8012e1:	b8 00 00 00 00       	mov    eax,0x0
  8012e6:	e8 0d fa ff ff       	call   800cf8 <printf>
    extern int cur_proc;
    extern struct process *task;
    if(task[cur_proc].pid==1)//系统进程
  8012eb:	48 8b 0d ae 71 c0 ff 	mov    rcx,QWORD PTR [rip+0xffffffffffc071ae]        # 4084a0 <task>
  8012f2:	8b 05 34 32 c1 ff    	mov    eax,DWORD PTR [rip+0xffffffffffc13234]        # 41452c <cur_proc>
  8012f8:	48 63 d0             	movsxd rdx,eax
  8012fb:	48 89 d0             	mov    rax,rdx
  8012fe:	48 01 c0             	add    rax,rax
  801301:	48 01 d0             	add    rax,rdx
  801304:	48 c1 e0 08          	shl    rax,0x8
  801308:	48 01 c8             	add    rax,rcx
  80130b:	8b 00                	mov    eax,DWORD PTR [rax]
  80130d:	83 f8 01             	cmp    eax,0x1
  801310:	75 11                	jne    801323 <page_err+0x11e>
    {
        printf("sys died. please reboot.\n");
  801312:	bf 8a 2c 81 00       	mov    edi,0x812c8a
  801317:	b8 00 00 00 00       	mov    eax,0x0
  80131c:	e8 d7 f9 ff ff       	call   800cf8 <printf>
        asm volatile("jmp .");
  801321:	eb fe                	jmp    801321 <page_err+0x11c>
    }
    //杀死问题进程
//    del_proc(cur_proc);
    // printf("killed the problem process.\n");
    // printf("shell:>");
    eoi();
  801323:	b8 00 00 00 00       	mov    eax,0x0
  801328:	e8 41 35 00 00       	call   80486e <eoi>
    //这里对esp的加法是必要的，因为page fault多push了一个错误码，但是iret识别不了
    __asm__ volatile ("sti \r\n  leave\n add $8,%esp \n iretq");
  80132d:	fb                   	sti    
  80132e:	c9                   	leave  
  80132f:	83 c4 08             	add    esp,0x8
  801332:	48 cf                	iretq  
}
  801334:	90                   	nop
  801335:	48 8b 5d f8          	mov    rbx,QWORD PTR [rbp-0x8]
  801339:	c9                   	leave  
  80133a:	c3                   	ret    

000000000080133b <init_memory>:
void init_memory()
{
  80133b:	f3 0f 1e fa          	endbr64 
  80133f:	55                   	push   rbp
  801340:	48 89 e5             	mov    rbp,rsp
    extern addr_t _knl_end,_knl_start;//lds中声明的内核的结尾地址，放置位图
    //获取内存大小
    size_t mem_size=mmap_struct[mmap_t_i-1].base+mmap_struct[mmap_t_i-1].len;
  801343:	8b 05 d7 ee bf ff    	mov    eax,DWORD PTR [rip+0xffffffffffbfeed7]        # 400220 <mmap_t_i>
  801349:	83 e8 01             	sub    eax,0x1
  80134c:	48 63 d0             	movsxd rdx,eax
  80134f:	48 89 d0             	mov    rax,rdx
  801352:	48 01 c0             	add    rax,rax
  801355:	48 01 d0             	add    rax,rdx
  801358:	48 c1 e0 03          	shl    rax,0x3
  80135c:	48 05 40 00 40 00    	add    rax,0x400040
  801362:	48 8b 08             	mov    rcx,QWORD PTR [rax]
  801365:	8b 05 b5 ee bf ff    	mov    eax,DWORD PTR [rip+0xffffffffffbfeeb5]        # 400220 <mmap_t_i>
  80136b:	83 e8 01             	sub    eax,0x1
  80136e:	48 63 d0             	movsxd rdx,eax
  801371:	48 89 d0             	mov    rax,rdx
  801374:	48 01 c0             	add    rax,rax
  801377:	48 01 d0             	add    rax,rdx
  80137a:	48 c1 e0 03          	shl    rax,0x3
  80137e:	48 05 48 00 40 00    	add    rax,0x400048
  801384:	48 8b 00             	mov    rax,QWORD PTR [rax]
  801387:	48 01 c8             	add    rax,rcx
  80138a:	48 89 45 e0          	mov    QWORD PTR [rbp-0x20],rax
    //计算出所需内存页数量
    int pgc=mem_size/PAGE_SIZE;
  80138e:	48 8b 45 e0          	mov    rax,QWORD PTR [rbp-0x20]
  801392:	48 c1 e8 0c          	shr    rax,0xc
  801396:	89 45 dc             	mov    DWORD PTR [rbp-0x24],eax
    //计算出位图所需的字节数
    int pg_bytes=pgc/32;
  801399:	8b 45 dc             	mov    eax,DWORD PTR [rbp-0x24]
  80139c:	8d 50 1f             	lea    edx,[rax+0x1f]
  80139f:	85 c0                	test   eax,eax
  8013a1:	0f 48 c2             	cmovs  eax,edx
  8013a4:	c1 f8 05             	sar    eax,0x5
  8013a7:	89 45 d8             	mov    DWORD PTR [rbp-0x28],eax
    page_map=(unsigned int*)PAGE_4K_ALIGN(0xc00000);
  8013aa:	48 c7 05 6b ec bf ff 	mov    QWORD PTR [rip+0xffffffffffbfec6b],0xc00000        # 400020 <page_map>
  8013b1:	00 00 c0 00 
    int* p=page_map;
  8013b5:	48 8b 05 64 ec bf ff 	mov    rax,QWORD PTR [rip+0xffffffffffbfec64]        # 400020 <page_map>
  8013bc:	48 89 45 f8          	mov    QWORD PTR [rbp-0x8],rax
    addr_t curp=0;
  8013c0:	48 c7 45 d0 00 00 00 	mov    QWORD PTR [rbp-0x30],0x0
  8013c7:	00 
    for(int i=0;i<mmap_t_i;i++){
  8013c8:	c7 45 f4 00 00 00 00 	mov    DWORD PTR [rbp-0xc],0x0
  8013cf:	e9 91 00 00 00       	jmp    801465 <init_memory+0x12a>
        int cont=0;
  8013d4:	c7 45 f0 00 00 00 00 	mov    DWORD PTR [rbp-0x10],0x0
        if(mmap_struct[i].type!=MULTIBOOT_MEMORY_AVAILABLE)
  8013db:	8b 45 f4             	mov    eax,DWORD PTR [rbp-0xc]
  8013de:	48 63 d0             	movsxd rdx,eax
  8013e1:	48 89 d0             	mov    rax,rdx
  8013e4:	48 01 c0             	add    rax,rax
  8013e7:	48 01 d0             	add    rax,rdx
  8013ea:	48 c1 e0 03          	shl    rax,0x3
  8013ee:	48 05 50 00 40 00    	add    rax,0x400050
  8013f4:	48 8b 00             	mov    rax,QWORD PTR [rax]
  8013f7:	48 83 f8 01          	cmp    rax,0x1
  8013fb:	74 07                	je     801404 <init_memory+0xc9>
            cont=-1;
  8013fd:	c7 45 f0 ff ff ff ff 	mov    DWORD PTR [rbp-0x10],0xffffffff
        for(int j=0;j<PAGE_4K_ALIGN(mmap_struct[i].len)/PAGE_4K_SIZE/32;j++){
  801404:	c7 45 ec 00 00 00 00 	mov    DWORD PTR [rbp-0x14],0x0
  80140b:	eb 15                	jmp    801422 <init_memory+0xe7>
            *(p++)=cont;
  80140d:	48 8b 45 f8          	mov    rax,QWORD PTR [rbp-0x8]
  801411:	48 8d 50 04          	lea    rdx,[rax+0x4]
  801415:	48 89 55 f8          	mov    QWORD PTR [rbp-0x8],rdx
  801419:	8b 55 f0             	mov    edx,DWORD PTR [rbp-0x10]
  80141c:	89 10                	mov    DWORD PTR [rax],edx
        for(int j=0;j<PAGE_4K_ALIGN(mmap_struct[i].len)/PAGE_4K_SIZE/32;j++){
  80141e:	83 45 ec 01          	add    DWORD PTR [rbp-0x14],0x1
  801422:	8b 45 ec             	mov    eax,DWORD PTR [rbp-0x14]
  801425:	48 63 c8             	movsxd rcx,eax
  801428:	8b 45 f4             	mov    eax,DWORD PTR [rbp-0xc]
  80142b:	48 63 d0             	movsxd rdx,eax
  80142e:	48 89 d0             	mov    rax,rdx
  801431:	48 01 c0             	add    rax,rax
  801434:	48 01 d0             	add    rax,rdx
  801437:	48 c1 e0 03          	shl    rax,0x3
  80143b:	48 05 48 00 40 00    	add    rax,0x400048
  801441:	48 8b 00             	mov    rax,QWORD PTR [rax]
  801444:	48 8d 90 ff 0f 00 00 	lea    rdx,[rax+0xfff]
  80144b:	48 b8 00 f0 ff ff ff 	movabs rax,0xfffffffff000
  801452:	ff 00 00 
  801455:	48 21 d0             	and    rax,rdx
  801458:	48 c1 e8 11          	shr    rax,0x11
  80145c:	48 39 c1             	cmp    rcx,rax
  80145f:	72 ac                	jb     80140d <init_memory+0xd2>
    for(int i=0;i<mmap_t_i;i++){
  801461:	83 45 f4 01          	add    DWORD PTR [rbp-0xc],0x1
  801465:	8b 05 b5 ed bf ff    	mov    eax,DWORD PTR [rip+0xffffffffffbfedb5]        # 400220 <mmap_t_i>
  80146b:	39 45 f4             	cmp    DWORD PTR [rbp-0xc],eax
  80146e:	0f 8c 60 ff ff ff    	jl     8013d4 <init_memory+0x99>
        }
    }

    //低16M空间直接被内核占用
    for(int i=0;i<128;i++){
  801474:	c7 45 e8 00 00 00 00 	mov    DWORD PTR [rbp-0x18],0x0
  80147b:	eb 1d                	jmp    80149a <init_memory+0x15f>
        page_map[i]=0xffffffff;
  80147d:	48 8b 15 9c eb bf ff 	mov    rdx,QWORD PTR [rip+0xffffffffffbfeb9c]        # 400020 <page_map>
  801484:	8b 45 e8             	mov    eax,DWORD PTR [rbp-0x18]
  801487:	48 98                	cdqe   
  801489:	48 c1 e0 02          	shl    rax,0x2
  80148d:	48 01 d0             	add    rax,rdx
  801490:	c7 00 ff ff ff ff    	mov    DWORD PTR [rax],0xffffffff
    for(int i=0;i<128;i++){
  801496:	83 45 e8 01          	add    DWORD PTR [rbp-0x18],0x1
  80149a:	83 7d e8 7f          	cmp    DWORD PTR [rbp-0x18],0x7f
  80149e:	7e dd                	jle    80147d <init_memory+0x142>
    }
}
  8014a0:	90                   	nop
  8014a1:	90                   	nop
  8014a2:	5d                   	pop    rbp
  8014a3:	c3                   	ret    

00000000008014a4 <req_a_page>:
/*
page_map存储方式:
0x00000000
little end
*/
addr_t req_a_page(){
  8014a4:	f3 0f 1e fa          	endbr64 
  8014a8:	55                   	push   rbp
  8014a9:	48 89 e5             	mov    rbp,rsp
    for(int i=0;i<PAGE_BITMAP_NR;i++){
  8014ac:	c7 45 fc 00 00 00 00 	mov    DWORD PTR [rbp-0x4],0x0
  8014b3:	e9 b0 00 00 00       	jmp    801568 <req_a_page+0xc4>
        for(int j=0;j<32;j++){
  8014b8:	c7 45 f8 00 00 00 00 	mov    DWORD PTR [rbp-0x8],0x0
  8014bf:	e9 96 00 00 00       	jmp    80155a <req_a_page+0xb6>
            unsigned int bit=page_map[i]&(1<<j);
  8014c4:	48 8b 15 55 eb bf ff 	mov    rdx,QWORD PTR [rip+0xffffffffffbfeb55]        # 400020 <page_map>
  8014cb:	8b 45 fc             	mov    eax,DWORD PTR [rbp-0x4]
  8014ce:	48 98                	cdqe   
  8014d0:	48 c1 e0 02          	shl    rax,0x2
  8014d4:	48 01 d0             	add    rax,rdx
  8014d7:	8b 10                	mov    edx,DWORD PTR [rax]
  8014d9:	8b 45 f8             	mov    eax,DWORD PTR [rbp-0x8]
  8014dc:	be 01 00 00 00       	mov    esi,0x1
  8014e1:	89 c1                	mov    ecx,eax
  8014e3:	d3 e6                	shl    esi,cl
  8014e5:	89 f0                	mov    eax,esi
  8014e7:	21 d0                	and    eax,edx
  8014e9:	89 45 f4             	mov    DWORD PTR [rbp-0xc],eax
            if((i*32+j)*4096>=0x100000&&!bit)
  8014ec:	8b 45 fc             	mov    eax,DWORD PTR [rbp-0x4]
  8014ef:	c1 e0 05             	shl    eax,0x5
  8014f2:	89 c2                	mov    edx,eax
  8014f4:	8b 45 f8             	mov    eax,DWORD PTR [rbp-0x8]
  8014f7:	01 d0                	add    eax,edx
  8014f9:	c1 e0 0c             	shl    eax,0xc
  8014fc:	3d ff ff 0f 00       	cmp    eax,0xfffff
  801501:	7e 53                	jle    801556 <req_a_page+0xb2>
  801503:	83 7d f4 00          	cmp    DWORD PTR [rbp-0xc],0x0
  801507:	75 4d                	jne    801556 <req_a_page+0xb2>
            {
                page_map[i]=page_map[i]|(1<<j);
  801509:	48 8b 15 10 eb bf ff 	mov    rdx,QWORD PTR [rip+0xffffffffffbfeb10]        # 400020 <page_map>
  801510:	8b 45 fc             	mov    eax,DWORD PTR [rbp-0x4]
  801513:	48 98                	cdqe   
  801515:	48 c1 e0 02          	shl    rax,0x2
  801519:	48 01 d0             	add    rax,rdx
  80151c:	8b 10                	mov    edx,DWORD PTR [rax]
  80151e:	8b 45 f8             	mov    eax,DWORD PTR [rbp-0x8]
  801521:	be 01 00 00 00       	mov    esi,0x1
  801526:	89 c1                	mov    ecx,eax
  801528:	d3 e6                	shl    esi,cl
  80152a:	89 f0                	mov    eax,esi
  80152c:	89 c6                	mov    esi,eax
  80152e:	48 8b 0d eb ea bf ff 	mov    rcx,QWORD PTR [rip+0xffffffffffbfeaeb]        # 400020 <page_map>
  801535:	8b 45 fc             	mov    eax,DWORD PTR [rbp-0x4]
  801538:	48 98                	cdqe   
  80153a:	48 c1 e0 02          	shl    rax,0x2
  80153e:	48 01 c8             	add    rax,rcx
  801541:	09 f2                	or     edx,esi
  801543:	89 10                	mov    DWORD PTR [rax],edx
                return i*32+j;//num of page
  801545:	8b 45 fc             	mov    eax,DWORD PTR [rbp-0x4]
  801548:	c1 e0 05             	shl    eax,0x5
  80154b:	89 c2                	mov    edx,eax
  80154d:	8b 45 f8             	mov    eax,DWORD PTR [rbp-0x8]
  801550:	01 d0                	add    eax,edx
  801552:	48 98                	cdqe   
  801554:	eb 1c                	jmp    801572 <req_a_page+0xce>
        for(int j=0;j<32;j++){
  801556:	83 45 f8 01          	add    DWORD PTR [rbp-0x8],0x1
  80155a:	83 7d f8 1f          	cmp    DWORD PTR [rbp-0x8],0x1f
  80155e:	0f 8e 60 ff ff ff    	jle    8014c4 <req_a_page+0x20>
    for(int i=0;i<PAGE_BITMAP_NR;i++){
  801564:	83 45 fc 01          	add    DWORD PTR [rbp-0x4],0x1
  801568:	83 7d fc 3f          	cmp    DWORD PTR [rbp-0x4],0x3f
  80156c:	0f 8e 46 ff ff ff    	jle    8014b8 <req_a_page+0x14>

            }
        }
    }
}
  801572:	5d                   	pop    rbp
  801573:	c3                   	ret    

0000000000801574 <free_page>:

int free_page(char *paddr){
  801574:	f3 0f 1e fa          	endbr64 
  801578:	55                   	push   rbp
  801579:	48 89 e5             	mov    rbp,rsp
  80157c:	48 89 7d e8          	mov    QWORD PTR [rbp-0x18],rdi
    int num=(int)paddr/4096;
  801580:	48 8b 45 e8          	mov    rax,QWORD PTR [rbp-0x18]
  801584:	8d 90 ff 0f 00 00    	lea    edx,[rax+0xfff]
  80158a:	85 c0                	test   eax,eax
  80158c:	0f 48 c2             	cmovs  eax,edx
  80158f:	c1 f8 0c             	sar    eax,0xc
  801592:	89 45 fc             	mov    DWORD PTR [rbp-0x4],eax
    int n=num/32;
  801595:	8b 45 fc             	mov    eax,DWORD PTR [rbp-0x4]
  801598:	8d 50 1f             	lea    edx,[rax+0x1f]
  80159b:	85 c0                	test   eax,eax
  80159d:	0f 48 c2             	cmovs  eax,edx
  8015a0:	c1 f8 05             	sar    eax,0x5
  8015a3:	89 45 f8             	mov    DWORD PTR [rbp-0x8],eax
    int r=num%32;
  8015a6:	8b 45 fc             	mov    eax,DWORD PTR [rbp-0x4]
  8015a9:	99                   	cdq    
  8015aa:	c1 ea 1b             	shr    edx,0x1b
  8015ad:	01 d0                	add    eax,edx
  8015af:	83 e0 1f             	and    eax,0x1f
  8015b2:	29 d0                	sub    eax,edx
  8015b4:	89 45 f4             	mov    DWORD PTR [rbp-0xc],eax
    page_map[n]=page_map[n]&~(unsigned int)(1<<r);
  8015b7:	48 8b 15 62 ea bf ff 	mov    rdx,QWORD PTR [rip+0xffffffffffbfea62]        # 400020 <page_map>
  8015be:	8b 45 f8             	mov    eax,DWORD PTR [rbp-0x8]
  8015c1:	48 98                	cdqe   
  8015c3:	48 c1 e0 02          	shl    rax,0x2
  8015c7:	48 01 d0             	add    rax,rdx
  8015ca:	8b 10                	mov    edx,DWORD PTR [rax]
  8015cc:	8b 45 f4             	mov    eax,DWORD PTR [rbp-0xc]
  8015cf:	be 01 00 00 00       	mov    esi,0x1
  8015d4:	89 c1                	mov    ecx,eax
  8015d6:	d3 e6                	shl    esi,cl
  8015d8:	89 f0                	mov    eax,esi
  8015da:	f7 d0                	not    eax
  8015dc:	89 c6                	mov    esi,eax
  8015de:	48 8b 0d 3b ea bf ff 	mov    rcx,QWORD PTR [rip+0xffffffffffbfea3b]        # 400020 <page_map>
  8015e5:	8b 45 f8             	mov    eax,DWORD PTR [rbp-0x8]
  8015e8:	48 98                	cdqe   
  8015ea:	48 c1 e0 02          	shl    rax,0x2
  8015ee:	48 01 c8             	add    rax,rcx
  8015f1:	21 f2                	and    edx,esi
  8015f3:	89 10                	mov    DWORD PTR [rax],edx
}
  8015f5:	90                   	nop
  8015f6:	5d                   	pop    rbp
  8015f7:	c3                   	ret    

00000000008015f8 <check_page>:
int check_page(int num){
  8015f8:	f3 0f 1e fa          	endbr64 
  8015fc:	55                   	push   rbp
  8015fd:	48 89 e5             	mov    rbp,rsp
  801600:	89 7d ec             	mov    DWORD PTR [rbp-0x14],edi
    int n=num/32;
  801603:	8b 45 ec             	mov    eax,DWORD PTR [rbp-0x14]
  801606:	8d 50 1f             	lea    edx,[rax+0x1f]
  801609:	85 c0                	test   eax,eax
  80160b:	0f 48 c2             	cmovs  eax,edx
  80160e:	c1 f8 05             	sar    eax,0x5
  801611:	89 45 fc             	mov    DWORD PTR [rbp-0x4],eax
    int r=num%32;
  801614:	8b 45 ec             	mov    eax,DWORD PTR [rbp-0x14]
  801617:	99                   	cdq    
  801618:	c1 ea 1b             	shr    edx,0x1b
  80161b:	01 d0                	add    eax,edx
  80161d:	83 e0 1f             	and    eax,0x1f
  801620:	29 d0                	sub    eax,edx
  801622:	89 45 f8             	mov    DWORD PTR [rbp-0x8],eax
    int bit=page_map[n]&(1<<r);
  801625:	48 8b 15 f4 e9 bf ff 	mov    rdx,QWORD PTR [rip+0xffffffffffbfe9f4]        # 400020 <page_map>
  80162c:	8b 45 fc             	mov    eax,DWORD PTR [rbp-0x4]
  80162f:	48 98                	cdqe   
  801631:	48 c1 e0 02          	shl    rax,0x2
  801635:	48 01 d0             	add    rax,rdx
  801638:	8b 10                	mov    edx,DWORD PTR [rax]
  80163a:	8b 45 f8             	mov    eax,DWORD PTR [rbp-0x8]
  80163d:	be 01 00 00 00       	mov    esi,0x1
  801642:	89 c1                	mov    ecx,eax
  801644:	d3 e6                	shl    esi,cl
  801646:	89 f0                	mov    eax,esi
  801648:	21 d0                	and    eax,edx
  80164a:	89 45 f4             	mov    DWORD PTR [rbp-0xc],eax
    return bit;
  80164d:	8b 45 f4             	mov    eax,DWORD PTR [rbp-0xc]
}
  801650:	5d                   	pop    rbp
  801651:	c3                   	ret    

0000000000801652 <get_phyaddr>:
/*
 * 获得这个页对应的物理内存地址
 * */
int get_phyaddr(int num){
  801652:	f3 0f 1e fa          	endbr64 
  801656:	55                   	push   rbp
  801657:	48 89 e5             	mov    rbp,rsp
  80165a:	89 7d fc             	mov    DWORD PTR [rbp-0x4],edi
    return num*0x1000;
  80165d:	8b 45 fc             	mov    eax,DWORD PTR [rbp-0x4]
  801660:	c1 e0 0c             	shl    eax,0xc
}
  801663:	5d                   	pop    rbp
  801664:	c3                   	ret    

0000000000801665 <set_page_item>:

void set_page_item(page_item *item_addr,int phy_addr,int attr)
{
  801665:	f3 0f 1e fa          	endbr64 
  801669:	55                   	push   rbp
  80166a:	48 89 e5             	mov    rbp,rsp
  80166d:	48 89 7d f8          	mov    QWORD PTR [rbp-0x8],rdi
  801671:	89 75 f4             	mov    DWORD PTR [rbp-0xc],esi
  801674:	89 55 f0             	mov    DWORD PTR [rbp-0x10],edx
    *item_addr=0;
  801677:	48 8b 45 f8          	mov    rax,QWORD PTR [rbp-0x8]
  80167b:	48 c7 00 00 00 00 00 	mov    QWORD PTR [rax],0x0
    *item_addr|=phy_addr&0xfffff000;
  801682:	48 8b 45 f8          	mov    rax,QWORD PTR [rbp-0x8]
  801686:	48 8b 10             	mov    rdx,QWORD PTR [rax]
  801689:	8b 45 f4             	mov    eax,DWORD PTR [rbp-0xc]
  80168c:	89 c0                	mov    eax,eax
  80168e:	25 00 f0 ff ff       	and    eax,0xfffff000
  801693:	48 09 c2             	or     rdx,rax
  801696:	48 8b 45 f8          	mov    rax,QWORD PTR [rbp-0x8]
  80169a:	48 89 10             	mov    QWORD PTR [rax],rdx
    *item_addr|=attr;
  80169d:	48 8b 45 f8          	mov    rax,QWORD PTR [rbp-0x8]
  8016a1:	48 8b 10             	mov    rdx,QWORD PTR [rax]
  8016a4:	8b 45 f0             	mov    eax,DWORD PTR [rbp-0x10]
  8016a7:	48 98                	cdqe   
  8016a9:	48 09 c2             	or     rdx,rax
  8016ac:	48 8b 45 f8          	mov    rax,QWORD PTR [rbp-0x8]
  8016b0:	48 89 10             	mov    QWORD PTR [rax],rdx
}
  8016b3:	90                   	nop
  8016b4:	5d                   	pop    rbp
  8016b5:	c3                   	ret    

00000000008016b6 <set_1gb_pdpt>:
void set_1gb_pdpt(page_item* ppdpt,int pa,unsigned int extra_attr)
{
  8016b6:	f3 0f 1e fa          	endbr64 
  8016ba:	55                   	push   rbp
  8016bb:	48 89 e5             	mov    rbp,rsp
  8016be:	48 89 7d e8          	mov    QWORD PTR [rbp-0x18],rdi
  8016c2:	89 75 e4             	mov    DWORD PTR [rbp-0x1c],esi
  8016c5:	89 55 e0             	mov    DWORD PTR [rbp-0x20],edx
    *ppdpt=0;
  8016c8:	48 8b 45 e8          	mov    rax,QWORD PTR [rbp-0x18]
  8016cc:	48 c7 00 00 00 00 00 	mov    QWORD PTR [rax],0x0
    *ppdpt|=PAGE_PRESENT|PDPTE_1GB|extra_attr;
  8016d3:	48 8b 45 e8          	mov    rax,QWORD PTR [rbp-0x18]
  8016d7:	48 8b 10             	mov    rdx,QWORD PTR [rax]
  8016da:	8b 45 e0             	mov    eax,DWORD PTR [rbp-0x20]
  8016dd:	0c 81                	or     al,0x81
  8016df:	89 c0                	mov    eax,eax
  8016e1:	48 09 c2             	or     rdx,rax
  8016e4:	48 8b 45 e8          	mov    rax,QWORD PTR [rbp-0x18]
  8016e8:	48 89 10             	mov    QWORD PTR [rax],rdx
    unsigned int hipa=pa&0xffffc0000000ul;
  8016eb:	8b 45 e4             	mov    eax,DWORD PTR [rbp-0x1c]
  8016ee:	25 00 00 00 c0       	and    eax,0xc0000000
  8016f3:	89 45 fc             	mov    DWORD PTR [rbp-0x4],eax
    *ppdpt|=hipa;
  8016f6:	48 8b 45 e8          	mov    rax,QWORD PTR [rbp-0x18]
  8016fa:	48 8b 10             	mov    rdx,QWORD PTR [rax]
  8016fd:	8b 45 fc             	mov    eax,DWORD PTR [rbp-0x4]
  801700:	48 09 c2             	or     rdx,rax
  801703:	48 8b 45 e8          	mov    rax,QWORD PTR [rbp-0x18]
  801707:	48 89 10             	mov    QWORD PTR [rax],rdx
}
  80170a:	90                   	nop
  80170b:	5d                   	pop    rbp
  80170c:	c3                   	ret    

000000000080170d <set_2mb_pde>:
void set_2mb_pde(page_item *pde, int pa, int extra_attr)
{
  80170d:	f3 0f 1e fa          	endbr64 
  801711:	55                   	push   rbp
  801712:	48 89 e5             	mov    rbp,rsp
  801715:	48 89 7d e8          	mov    QWORD PTR [rbp-0x18],rdi
  801719:	89 75 e4             	mov    DWORD PTR [rbp-0x1c],esi
  80171c:	89 55 e0             	mov    DWORD PTR [rbp-0x20],edx
    *pde=0;
  80171f:	48 8b 45 e8          	mov    rax,QWORD PTR [rbp-0x18]
  801723:	48 c7 00 00 00 00 00 	mov    QWORD PTR [rax],0x0
    *pde|=PAGE_PRESENT|PAGE_4MB_PAGE|PDE_4MB_PAT|extra_attr;
  80172a:	48 8b 45 e8          	mov    rax,QWORD PTR [rbp-0x18]
  80172e:	48 8b 10             	mov    rdx,QWORD PTR [rax]
  801731:	8b 45 e0             	mov    eax,DWORD PTR [rbp-0x20]
  801734:	0d 81 10 00 00       	or     eax,0x1081
  801739:	48 98                	cdqe   
  80173b:	48 09 c2             	or     rdx,rax
  80173e:	48 8b 45 e8          	mov    rax,QWORD PTR [rbp-0x18]
  801742:	48 89 10             	mov    QWORD PTR [rax],rdx
    unsigned int hipa=pa&0xffc00000;
  801745:	8b 45 e4             	mov    eax,DWORD PTR [rbp-0x1c]
  801748:	25 00 00 c0 ff       	and    eax,0xffc00000
  80174d:	89 45 fc             	mov    DWORD PTR [rbp-0x4],eax
    *pde|=hipa;
  801750:	48 8b 45 e8          	mov    rax,QWORD PTR [rbp-0x18]
  801754:	48 8b 10             	mov    rdx,QWORD PTR [rax]
  801757:	8b 45 fc             	mov    eax,DWORD PTR [rbp-0x4]
  80175a:	48 09 c2             	or     rdx,rax
  80175d:	48 8b 45 e8          	mov    rax,QWORD PTR [rbp-0x18]
  801761:	48 89 10             	mov    QWORD PTR [rax],rdx
}
  801764:	90                   	nop
  801765:	5d                   	pop    rbp
  801766:	c3                   	ret    

0000000000801767 <req_page_at>:
        page_map[i]&=(u32)(1<<j);
    return ret;
} */
//在bitmap申请指定的页面,base默认0x1000对齐
addr_t req_page_at(addr_t base,int pgn)
{
  801767:	f3 0f 1e fa          	endbr64 
  80176b:	55                   	push   rbp
  80176c:	48 89 e5             	mov    rbp,rsp
  80176f:	48 83 ec 20          	sub    rsp,0x20
  801773:	48 89 7d e8          	mov    QWORD PTR [rbp-0x18],rdi
  801777:	89 75 e4             	mov    DWORD PTR [rbp-0x1c],esi
    if(base==0)//不指定地址
  80177a:	48 83 7d e8 00       	cmp    QWORD PTR [rbp-0x18],0x0
  80177f:	75 18                	jne    801799 <req_page_at+0x32>
    {
        return get_phyaddr(req_a_page());
  801781:	b8 00 00 00 00       	mov    eax,0x0
  801786:	e8 19 fd ff ff       	call   8014a4 <req_a_page>
  80178b:	89 c7                	mov    edi,eax
  80178d:	e8 c0 fe ff ff       	call   801652 <get_phyaddr>
  801792:	48 98                	cdqe   
  801794:	e9 a5 00 00 00       	jmp    80183e <req_page_at+0xd7>
    }
    if(!is_pgs_ava(base,pgn))return -1;//先检查
  801799:	48 8b 45 e8          	mov    rax,QWORD PTR [rbp-0x18]
  80179d:	89 c2                	mov    edx,eax
  80179f:	8b 45 e4             	mov    eax,DWORD PTR [rbp-0x1c]
  8017a2:	89 c6                	mov    esi,eax
  8017a4:	89 d7                	mov    edi,edx
  8017a6:	e8 52 01 00 00       	call   8018fd <is_pgs_ava>
  8017ab:	85 c0                	test   eax,eax
  8017ad:	75 0c                	jne    8017bb <req_page_at+0x54>
  8017af:	48 c7 c0 ff ff ff ff 	mov    rax,0xffffffffffffffff
  8017b6:	e9 83 00 00 00       	jmp    80183e <req_page_at+0xd7>
    int pgni=base/4096;
  8017bb:	48 8b 45 e8          	mov    rax,QWORD PTR [rbp-0x18]
  8017bf:	48 c1 e8 0c          	shr    rax,0xc
  8017c3:	89 45 f8             	mov    DWORD PTR [rbp-0x8],eax
    int pgi=pgni/32;
  8017c6:	8b 45 f8             	mov    eax,DWORD PTR [rbp-0x8]
  8017c9:	8d 50 1f             	lea    edx,[rax+0x1f]
  8017cc:	85 c0                	test   eax,eax
  8017ce:	0f 48 c2             	cmovs  eax,edx
  8017d1:	c1 f8 05             	sar    eax,0x5
  8017d4:	89 45 f4             	mov    DWORD PTR [rbp-0xc],eax
    int pgj=pgni%32;
  8017d7:	8b 45 f8             	mov    eax,DWORD PTR [rbp-0x8]
  8017da:	99                   	cdq    
  8017db:	c1 ea 1b             	shr    edx,0x1b
  8017de:	01 d0                	add    eax,edx
  8017e0:	83 e0 1f             	and    eax,0x1f
  8017e3:	29 d0                	sub    eax,edx
  8017e5:	89 45 f0             	mov    DWORD PTR [rbp-0x10],eax
    for(int i=0;i<pgn;i++)
  8017e8:	c7 45 fc 00 00 00 00 	mov    DWORD PTR [rbp-0x4],0x0
  8017ef:	eb 40                	jmp    801831 <req_page_at+0xca>
    {
        page_map[i]|=(1<<pgj);
  8017f1:	48 8b 15 28 e8 bf ff 	mov    rdx,QWORD PTR [rip+0xffffffffffbfe828]        # 400020 <page_map>
  8017f8:	8b 45 fc             	mov    eax,DWORD PTR [rbp-0x4]
  8017fb:	48 98                	cdqe   
  8017fd:	48 c1 e0 02          	shl    rax,0x2
  801801:	48 01 d0             	add    rax,rdx
  801804:	8b 10                	mov    edx,DWORD PTR [rax]
  801806:	8b 45 f0             	mov    eax,DWORD PTR [rbp-0x10]
  801809:	be 01 00 00 00       	mov    esi,0x1
  80180e:	89 c1                	mov    ecx,eax
  801810:	d3 e6                	shl    esi,cl
  801812:	89 f0                	mov    eax,esi
  801814:	89 c6                	mov    esi,eax
  801816:	48 8b 0d 03 e8 bf ff 	mov    rcx,QWORD PTR [rip+0xffffffffffbfe803]        # 400020 <page_map>
  80181d:	8b 45 fc             	mov    eax,DWORD PTR [rbp-0x4]
  801820:	48 98                	cdqe   
  801822:	48 c1 e0 02          	shl    rax,0x2
  801826:	48 01 c8             	add    rax,rcx
  801829:	09 f2                	or     edx,esi
  80182b:	89 10                	mov    DWORD PTR [rax],edx
    for(int i=0;i<pgn;i++)
  80182d:	83 45 fc 01          	add    DWORD PTR [rbp-0x4],0x1
  801831:	8b 45 fc             	mov    eax,DWORD PTR [rbp-0x4]
  801834:	3b 45 e4             	cmp    eax,DWORD PTR [rbp-0x1c]
  801837:	7c b8                	jl     8017f1 <req_page_at+0x8a>
    }
    return 0;
  801839:	b8 00 00 00 00       	mov    eax,0x0

}
  80183e:	c9                   	leave  
  80183f:	c3                   	ret    

0000000000801840 <chk_vm>:
int chk_vm(int base, int pgn)
{
  801840:	f3 0f 1e fa          	endbr64 
  801844:	55                   	push   rbp
  801845:	48 89 e5             	mov    rbp,rsp
  801848:	89 7d ec             	mov    DWORD PTR [rbp-0x14],edi
  80184b:	89 75 e8             	mov    DWORD PTR [rbp-0x18],esi
    int *pdet=0;
  80184e:	48 c7 45 f8 00 00 00 	mov    QWORD PTR [rbp-0x8],0x0
  801855:	00 
    asm volatile("mov %%cr3,%0":"=r"(pdet));
  801856:	0f 20 d8             	mov    rax,cr3
  801859:	48 89 45 f8          	mov    QWORD PTR [rbp-0x8],rax
    int *pt=pdet[base/PAGE_INDEX_SIZE]&0xfffff000;
  80185d:	8b 45 ec             	mov    eax,DWORD PTR [rbp-0x14]
  801860:	8d 90 ff ff 1f 00    	lea    edx,[rax+0x1fffff]
  801866:	85 c0                	test   eax,eax
  801868:	0f 48 c2             	cmovs  eax,edx
  80186b:	c1 f8 15             	sar    eax,0x15
  80186e:	48 98                	cdqe   
  801870:	48 8d 14 85 00 00 00 	lea    rdx,[rax*4+0x0]
  801877:	00 
  801878:	48 8b 45 f8          	mov    rax,QWORD PTR [rbp-0x8]
  80187c:	48 01 d0             	add    rax,rdx
  80187f:	8b 00                	mov    eax,DWORD PTR [rax]
  801881:	89 c0                	mov    eax,eax
  801883:	25 00 f0 ff ff       	and    eax,0xfffff000
  801888:	48 89 45 f0          	mov    QWORD PTR [rbp-0x10],rax
    if(!(pdet[base/PAGE_INDEX_SIZE]&PAGE_PRESENT)||\
  80188c:	8b 45 ec             	mov    eax,DWORD PTR [rbp-0x14]
  80188f:	8d 90 ff ff 1f 00    	lea    edx,[rax+0x1fffff]
  801895:	85 c0                	test   eax,eax
  801897:	0f 48 c2             	cmovs  eax,edx
  80189a:	c1 f8 15             	sar    eax,0x15
  80189d:	48 98                	cdqe   
  80189f:	48 8d 14 85 00 00 00 	lea    rdx,[rax*4+0x0]
  8018a6:	00 
  8018a7:	48 8b 45 f8          	mov    rax,QWORD PTR [rbp-0x8]
  8018ab:	48 01 d0             	add    rax,rdx
  8018ae:	8b 00                	mov    eax,DWORD PTR [rax]
  8018b0:	83 e0 01             	and    eax,0x1
  8018b3:	85 c0                	test   eax,eax
  8018b5:	74 38                	je     8018ef <chk_vm+0xaf>
    !(pt[base%PAGE_INDEX_SIZE/PAGE_SIZE]&PAGE_PRESENT))
  8018b7:	8b 45 ec             	mov    eax,DWORD PTR [rbp-0x14]
  8018ba:	99                   	cdq    
  8018bb:	c1 ea 0b             	shr    edx,0xb
  8018be:	01 d0                	add    eax,edx
  8018c0:	25 ff ff 1f 00       	and    eax,0x1fffff
  8018c5:	29 d0                	sub    eax,edx
  8018c7:	8d 90 ff 0f 00 00    	lea    edx,[rax+0xfff]
  8018cd:	85 c0                	test   eax,eax
  8018cf:	0f 48 c2             	cmovs  eax,edx
  8018d2:	c1 f8 0c             	sar    eax,0xc
  8018d5:	48 98                	cdqe   
  8018d7:	48 8d 14 85 00 00 00 	lea    rdx,[rax*4+0x0]
  8018de:	00 
  8018df:	48 8b 45 f0          	mov    rax,QWORD PTR [rbp-0x10]
  8018e3:	48 01 d0             	add    rax,rdx
  8018e6:	8b 00                	mov    eax,DWORD PTR [rax]
  8018e8:	83 e0 01             	and    eax,0x1
    if(!(pdet[base/PAGE_INDEX_SIZE]&PAGE_PRESENT)||\
  8018eb:	85 c0                	test   eax,eax
  8018ed:	75 07                	jne    8018f6 <chk_vm+0xb6>
    {
        return -1;
  8018ef:	b8 ff ff ff ff       	mov    eax,0xffffffff
  8018f4:	eb 05                	jmp    8018fb <chk_vm+0xbb>
    }
    return 0;
  8018f6:	b8 00 00 00 00       	mov    eax,0x0
}
  8018fb:	5d                   	pop    rbp
  8018fc:	c3                   	ret    

00000000008018fd <is_pgs_ava>:
//查看指定区域的页内存是否可用
int is_pgs_ava(int base,int pgn)
{
  8018fd:	f3 0f 1e fa          	endbr64 
  801901:	55                   	push   rbp
  801902:	48 89 e5             	mov    rbp,rsp
  801905:	48 83 ec 18          	sub    rsp,0x18
  801909:	89 7d ec             	mov    DWORD PTR [rbp-0x14],edi
  80190c:	89 75 e8             	mov    DWORD PTR [rbp-0x18],esi
    int pgi=base/4096;
  80190f:	8b 45 ec             	mov    eax,DWORD PTR [rbp-0x14]
  801912:	8d 90 ff 0f 00 00    	lea    edx,[rax+0xfff]
  801918:	85 c0                	test   eax,eax
  80191a:	0f 48 c2             	cmovs  eax,edx
  80191d:	c1 f8 0c             	sar    eax,0xc
  801920:	89 45 f8             	mov    DWORD PTR [rbp-0x8],eax
    for(int i=0;i<pgn;i++)
  801923:	c7 45 fc 00 00 00 00 	mov    DWORD PTR [rbp-0x4],0x0
  80192a:	eb 1e                	jmp    80194a <is_pgs_ava+0x4d>
    {
        if(check_page(pgi+i)!=0)return 0;
  80192c:	8b 55 f8             	mov    edx,DWORD PTR [rbp-0x8]
  80192f:	8b 45 fc             	mov    eax,DWORD PTR [rbp-0x4]
  801932:	01 d0                	add    eax,edx
  801934:	89 c7                	mov    edi,eax
  801936:	e8 bd fc ff ff       	call   8015f8 <check_page>
  80193b:	85 c0                	test   eax,eax
  80193d:	74 07                	je     801946 <is_pgs_ava+0x49>
  80193f:	b8 00 00 00 00       	mov    eax,0x0
  801944:	eb 11                	jmp    801957 <is_pgs_ava+0x5a>
    for(int i=0;i<pgn;i++)
  801946:	83 45 fc 01          	add    DWORD PTR [rbp-0x4],0x1
  80194a:	8b 45 fc             	mov    eax,DWORD PTR [rbp-0x4]
  80194d:	3b 45 e8             	cmp    eax,DWORD PTR [rbp-0x18]
  801950:	7c da                	jl     80192c <is_pgs_ava+0x2f>
    }
    return 1;
  801952:	b8 01 00 00 00       	mov    eax,0x1

}
  801957:	c9                   	leave  
  801958:	c3                   	ret    

0000000000801959 <setup_sys_vol>:
super_block sbs[MAX_SUPERBLOCKS];
fs_operations fs[MAX_FS];

buffer_head buffer_heads[NR_BUFFERHEADS];
int setup_sys_vol(void *disk_drv, void *fs_drv)
{
  801959:	f3 0f 1e fa          	endbr64 
  80195d:	55                   	push   rbp
  80195e:	48 89 e5             	mov    rbp,rsp
  801961:	48 89 7d f8          	mov    QWORD PTR [rbp-0x8],rdi
  801965:	48 89 75 f0          	mov    QWORD PTR [rbp-0x10],rsi
    vols[0].name[0]='C';
  801969:	c6 05 d0 e8 bf ff 43 	mov    BYTE PTR [rip+0xffffffffffbfe8d0],0x43        # 400240 <vols>
    vols[0].name[1]='\0';
  801970:	c6 05 ca e8 bf ff 00 	mov    BYTE PTR [rip+0xffffffffffbfe8ca],0x0        # 400241 <vols+0x1>
    vols[0].disk_drv=disk_drv;
  801977:	48 8b 45 f8          	mov    rax,QWORD PTR [rbp-0x8]
  80197b:	48 89 05 c6 e8 bf ff 	mov    QWORD PTR [rip+0xffffffffffbfe8c6],rax        # 400248 <vols+0x8>
    vols[0].fs_drv=fs_drv;
  801982:	48 8b 45 f0          	mov    rax,QWORD PTR [rbp-0x10]
  801986:	48 89 05 c3 e8 bf ff 	mov    QWORD PTR [rip+0xffffffffffbfe8c3],rax        # 400250 <vols+0x10>
    vols[0].stat=VOLUME_STAT_READY;
  80198d:	c7 05 c9 e8 bf ff 01 	mov    DWORD PTR [rip+0xffffffffffbfe8c9],0x1        # 400260 <vols+0x20>
  801994:	00 00 00 
    return 0;
  801997:	b8 00 00 00 00       	mov    eax,0x0
}
  80199c:	5d                   	pop    rbp
  80199d:	c3                   	ret    

000000000080199e <sys_mkfifo>:
//返回管道描述符
int sys_mkfifo(int number)
{
  80199e:	f3 0f 1e fa          	endbr64 
  8019a2:	55                   	push   rbp
  8019a3:	48 89 e5             	mov    rbp,rsp
  8019a6:	48 83 ec 20          	sub    rsp,0x20
  8019aa:	89 7d ec             	mov    DWORD PTR [rbp-0x14],edi
    //查重
    for(int i=0;i<MAX_FIFOS;i++)
  8019ad:	c7 45 fc 00 00 00 00 	mov    DWORD PTR [rbp-0x4],0x0
  8019b4:	eb 38                	jmp    8019ee <sys_mkfifo+0x50>
    {
        if(fifos[i].id==number&&fifos[i].flag==1) {
  8019b6:	8b 45 fc             	mov    eax,DWORD PTR [rbp-0x4]
  8019b9:	48 98                	cdqe   
  8019bb:	48 c1 e0 04          	shl    rax,0x4
  8019bf:	48 05 6c 1e 40 00    	add    rax,0x401e6c
  8019c5:	8b 00                	mov    eax,DWORD PTR [rax]
  8019c7:	39 45 ec             	cmp    DWORD PTR [rbp-0x14],eax
  8019ca:	75 1e                	jne    8019ea <sys_mkfifo+0x4c>
  8019cc:	8b 45 fc             	mov    eax,DWORD PTR [rbp-0x4]
  8019cf:	48 98                	cdqe   
  8019d1:	48 c1 e0 04          	shl    rax,0x4
  8019d5:	48 05 68 1e 40 00    	add    rax,0x401e68
  8019db:	8b 00                	mov    eax,DWORD PTR [rax]
  8019dd:	83 f8 01             	cmp    eax,0x1
  8019e0:	75 08                	jne    8019ea <sys_mkfifo+0x4c>
            return i;
  8019e2:	8b 45 fc             	mov    eax,DWORD PTR [rbp-0x4]
  8019e5:	e9 a6 00 00 00       	jmp    801a90 <sys_mkfifo+0xf2>
    for(int i=0;i<MAX_FIFOS;i++)
  8019ea:	83 45 fc 01          	add    DWORD PTR [rbp-0x4],0x1
  8019ee:	83 7d fc 0f          	cmp    DWORD PTR [rbp-0x4],0xf
  8019f2:	7e c2                	jle    8019b6 <sys_mkfifo+0x18>
        }
    }
    for(int i=0;i<MAX_FIFOS;i++)
  8019f4:	c7 45 f8 00 00 00 00 	mov    DWORD PTR [rbp-0x8],0x0
  8019fb:	e9 81 00 00 00       	jmp    801a81 <sys_mkfifo+0xe3>
    {
        if(fifos[i].flag==0) {
  801a00:	8b 45 f8             	mov    eax,DWORD PTR [rbp-0x8]
  801a03:	48 98                	cdqe   
  801a05:	48 c1 e0 04          	shl    rax,0x4
  801a09:	48 05 68 1e 40 00    	add    rax,0x401e68
  801a0f:	8b 00                	mov    eax,DWORD PTR [rax]
  801a11:	85 c0                	test   eax,eax
  801a13:	75 68                	jne    801a7d <sys_mkfifo+0xdf>
            fifos[i].flag=1;
  801a15:	8b 45 f8             	mov    eax,DWORD PTR [rbp-0x8]
  801a18:	48 98                	cdqe   
  801a1a:	48 c1 e0 04          	shl    rax,0x4
  801a1e:	48 05 68 1e 40 00    	add    rax,0x401e68
  801a24:	c7 00 01 00 00 00    	mov    DWORD PTR [rax],0x1
            fifos[i].id=number;
  801a2a:	8b 45 f8             	mov    eax,DWORD PTR [rbp-0x8]
  801a2d:	48 98                	cdqe   
  801a2f:	48 c1 e0 04          	shl    rax,0x4
  801a33:	48 8d 90 6c 1e 40 00 	lea    rdx,[rax+0x401e6c]
  801a3a:	8b 45 ec             	mov    eax,DWORD PTR [rbp-0x14]
  801a3d:	89 02                	mov    DWORD PTR [rdx],eax
            fifos[i].size=CHUNK_SIZE;
  801a3f:	8b 45 f8             	mov    eax,DWORD PTR [rbp-0x8]
  801a42:	48 98                	cdqe   
  801a44:	48 c1 e0 04          	shl    rax,0x4
  801a48:	48 05 64 1e 40 00    	add    rax,0x401e64
  801a4e:	c7 00 00 10 00 00    	mov    DWORD PTR [rax],0x1000
            //分配内存
            fifos[i].pa= get_phyaddr(req_a_page());
  801a54:	b8 00 00 00 00       	mov    eax,0x0
  801a59:	e8 46 fa ff ff       	call   8014a4 <req_a_page>
  801a5e:	89 c7                	mov    edi,eax
  801a60:	e8 ed fb ff ff       	call   801652 <get_phyaddr>
  801a65:	8b 55 f8             	mov    edx,DWORD PTR [rbp-0x8]
  801a68:	48 63 d2             	movsxd rdx,edx
  801a6b:	48 c1 e2 04          	shl    rdx,0x4
  801a6f:	48 81 c2 60 1e 40 00 	add    rdx,0x401e60
  801a76:	89 02                	mov    DWORD PTR [rdx],eax
            return i;
  801a78:	8b 45 f8             	mov    eax,DWORD PTR [rbp-0x8]
  801a7b:	eb 13                	jmp    801a90 <sys_mkfifo+0xf2>
    for(int i=0;i<MAX_FIFOS;i++)
  801a7d:	83 45 f8 01          	add    DWORD PTR [rbp-0x8],0x1
  801a81:	83 7d f8 0f          	cmp    DWORD PTR [rbp-0x8],0xf
  801a85:	0f 8e 75 ff ff ff    	jle    801a00 <sys_mkfifo+0x62>
        }
    }
    return -1;
  801a8b:	b8 ff ff ff ff       	mov    eax,0xffffffff
}
  801a90:	c9                   	leave  
  801a91:	c3                   	ret    

0000000000801a92 <sys_rmfifo>:

int sys_rmfifo(int number)
{
  801a92:	f3 0f 1e fa          	endbr64 
  801a96:	55                   	push   rbp
  801a97:	48 89 e5             	mov    rbp,rsp
  801a9a:	89 7d ec             	mov    DWORD PTR [rbp-0x14],edi
    for(int i=0;i<MAX_FIFOS;i++)
  801a9d:	c7 45 fc 00 00 00 00 	mov    DWORD PTR [rbp-0x4],0x0
  801aa4:	eb 4a                	jmp    801af0 <sys_rmfifo+0x5e>
    {
        if(fifos[i].id==number&&fifos[i].flag==1) {
  801aa6:	8b 45 fc             	mov    eax,DWORD PTR [rbp-0x4]
  801aa9:	48 98                	cdqe   
  801aab:	48 c1 e0 04          	shl    rax,0x4
  801aaf:	48 05 6c 1e 40 00    	add    rax,0x401e6c
  801ab5:	8b 00                	mov    eax,DWORD PTR [rax]
  801ab7:	39 45 ec             	cmp    DWORD PTR [rbp-0x14],eax
  801aba:	75 30                	jne    801aec <sys_rmfifo+0x5a>
  801abc:	8b 45 fc             	mov    eax,DWORD PTR [rbp-0x4]
  801abf:	48 98                	cdqe   
  801ac1:	48 c1 e0 04          	shl    rax,0x4
  801ac5:	48 05 68 1e 40 00    	add    rax,0x401e68
  801acb:	8b 00                	mov    eax,DWORD PTR [rax]
  801acd:	83 f8 01             	cmp    eax,0x1
  801ad0:	75 1a                	jne    801aec <sys_rmfifo+0x5a>
            fifos[i].flag=0;
  801ad2:	8b 45 fc             	mov    eax,DWORD PTR [rbp-0x4]
  801ad5:	48 98                	cdqe   
  801ad7:	48 c1 e0 04          	shl    rax,0x4
  801adb:	48 05 68 1e 40 00    	add    rax,0x401e68
  801ae1:	c7 00 00 00 00 00    	mov    DWORD PTR [rax],0x0
            return i;
  801ae7:	8b 45 fc             	mov    eax,DWORD PTR [rbp-0x4]
  801aea:	eb 0f                	jmp    801afb <sys_rmfifo+0x69>
    for(int i=0;i<MAX_FIFOS;i++)
  801aec:	83 45 fc 01          	add    DWORD PTR [rbp-0x4],0x1
  801af0:	83 7d fc 0f          	cmp    DWORD PTR [rbp-0x4],0xf
  801af4:	7e b0                	jle    801aa6 <sys_rmfifo+0x14>
        }
    }
    return -1;
  801af6:	b8 ff ff ff ff       	mov    eax,0xffffffff
}
  801afb:	5d                   	pop    rbp
  801afc:	c3                   	ret    

0000000000801afd <free_vol>:
int free_vol(int voli)
{
  801afd:	f3 0f 1e fa          	endbr64 
  801b01:	55                   	push   rbp
  801b02:	48 89 e5             	mov    rbp,rsp
  801b05:	89 7d fc             	mov    DWORD PTR [rbp-0x4],edi
    vols[0].stat=VOLUME_STAT_EMPTY;
  801b08:	c7 05 4e e7 bf ff 00 	mov    DWORD PTR [rip+0xffffffffffbfe74e],0x0        # 400260 <vols+0x20>
  801b0f:	00 00 00 
    return 0;
  801b12:	b8 00 00 00 00       	mov    eax,0x0
}
  801b17:	5d                   	pop    rbp
  801b18:	c3                   	ret    

0000000000801b19 <reg_vol>:

int reg_vol(int disk_drvi, int fs_drvi, char *name)
{
  801b19:	f3 0f 1e fa          	endbr64 
  801b1d:	55                   	push   rbp
  801b1e:	48 89 e5             	mov    rbp,rsp
  801b21:	48 83 ec 20          	sub    rsp,0x20
  801b25:	89 7d ec             	mov    DWORD PTR [rbp-0x14],edi
  801b28:	89 75 e8             	mov    DWORD PTR [rbp-0x18],esi
  801b2b:	48 89 55 e0          	mov    QWORD PTR [rbp-0x20],rdx
    for(int i=0;i<MAX_VOLUMES;i++)
  801b2f:	c7 45 fc 00 00 00 00 	mov    DWORD PTR [rbp-0x4],0x0
  801b36:	e9 d8 00 00 00       	jmp    801c13 <reg_vol+0xfa>
    {
        if(vols[i].stat==VOLUME_STAT_EMPTY)
  801b3b:	8b 45 fc             	mov    eax,DWORD PTR [rbp-0x4]
  801b3e:	48 63 d0             	movsxd rdx,eax
  801b41:	48 89 d0             	mov    rax,rdx
  801b44:	48 c1 e0 02          	shl    rax,0x2
  801b48:	48 01 d0             	add    rax,rdx
  801b4b:	48 c1 e0 03          	shl    rax,0x3
  801b4f:	48 05 60 02 40 00    	add    rax,0x400260
  801b55:	8b 00                	mov    eax,DWORD PTR [rax]
  801b57:	85 c0                	test   eax,eax
  801b59:	0f 85 b0 00 00 00    	jne    801c0f <reg_vol+0xf6>
        {
            extern driver *drvs;
            vols[i].stat=VOLUME_STAT_READY;
  801b5f:	8b 45 fc             	mov    eax,DWORD PTR [rbp-0x4]
  801b62:	48 63 d0             	movsxd rdx,eax
  801b65:	48 89 d0             	mov    rax,rdx
  801b68:	48 c1 e0 02          	shl    rax,0x2
  801b6c:	48 01 d0             	add    rax,rdx
  801b6f:	48 c1 e0 03          	shl    rax,0x3
  801b73:	48 05 60 02 40 00    	add    rax,0x400260
  801b79:	c7 00 01 00 00 00    	mov    DWORD PTR [rax],0x1
            vols[i].fs= &fs[fs_drvi];
  801b7f:	8b 45 e8             	mov    eax,DWORD PTR [rbp-0x18]
  801b82:	48 63 d0             	movsxd rdx,eax
  801b85:	48 89 d0             	mov    rax,rdx
  801b88:	48 01 c0             	add    rax,rax
  801b8b:	48 01 d0             	add    rax,rdx
  801b8e:	48 c1 e0 03          	shl    rax,0x3
  801b92:	48 8d 88 80 23 40 00 	lea    rcx,[rax+0x402380]
  801b99:	8b 45 fc             	mov    eax,DWORD PTR [rbp-0x4]
  801b9c:	48 63 d0             	movsxd rdx,eax
  801b9f:	48 89 d0             	mov    rax,rdx
  801ba2:	48 c1 e0 02          	shl    rax,0x2
  801ba6:	48 01 d0             	add    rax,rdx
  801ba9:	48 c1 e0 03          	shl    rax,0x3
  801bad:	48 05 58 02 40 00    	add    rax,0x400258
  801bb3:	48 89 08             	mov    QWORD PTR [rax],rcx
            vols[i].disk_drv= get_drv(disk_drvi);
  801bb6:	8b 45 ec             	mov    eax,DWORD PTR [rbp-0x14]
  801bb9:	89 c7                	mov    edi,eax
  801bbb:	e8 3d 13 00 00       	call   802efd <get_drv>
  801bc0:	48 89 c2             	mov    rdx,rax
  801bc3:	8b 45 fc             	mov    eax,DWORD PTR [rbp-0x4]
  801bc6:	48 63 c8             	movsxd rcx,eax
  801bc9:	48 89 c8             	mov    rax,rcx
  801bcc:	48 c1 e0 02          	shl    rax,0x2
  801bd0:	48 01 c8             	add    rax,rcx
  801bd3:	48 c1 e0 03          	shl    rax,0x3
  801bd7:	48 05 48 02 40 00    	add    rax,0x400248
  801bdd:	48 89 10             	mov    QWORD PTR [rax],rdx
            strcpy(vols[i].name,name);
  801be0:	8b 45 fc             	mov    eax,DWORD PTR [rbp-0x4]
  801be3:	48 63 d0             	movsxd rdx,eax
  801be6:	48 89 d0             	mov    rax,rdx
  801be9:	48 c1 e0 02          	shl    rax,0x2
  801bed:	48 01 d0             	add    rax,rdx
  801bf0:	48 c1 e0 03          	shl    rax,0x3
  801bf4:	48 8d 90 40 02 40 00 	lea    rdx,[rax+0x400240]
  801bfb:	48 8b 45 e0          	mov    rax,QWORD PTR [rbp-0x20]
  801bff:	48 89 c6             	mov    rsi,rax
  801c02:	48 89 d7             	mov    rdi,rdx
  801c05:	e8 65 8c 00 00       	call   80a86f <strcpy>
            return i;
  801c0a:	8b 45 fc             	mov    eax,DWORD PTR [rbp-0x4]
  801c0d:	eb 13                	jmp    801c22 <reg_vol+0x109>
    for(int i=0;i<MAX_VOLUMES;i++)
  801c0f:	83 45 fc 01          	add    DWORD PTR [rbp-0x4],0x1
  801c13:	83 7d fc 19          	cmp    DWORD PTR [rbp-0x4],0x19
  801c17:	0f 8e 1e ff ff ff    	jle    801b3b <reg_vol+0x22>
        }
    }
    return -1;
  801c1d:	b8 ff ff ff ff       	mov    eax,0xffffffff
}
  801c22:	c9                   	leave  
  801c23:	c3                   	ret    

0000000000801c24 <sys_tell>:
//    if(!f)return -1;
//    f->ptr=offset+origin;
//    return 0;
//}
int sys_tell(int fno)
{
  801c24:	f3 0f 1e fa          	endbr64 
  801c28:	55                   	push   rbp
  801c29:	48 89 e5             	mov    rbp,rsp
  801c2c:	89 7d ec             	mov    DWORD PTR [rbp-0x14],edi
    struct file* f=current->openf[fno];
  801c2f:	48 8b 05 6a 28 c1 ff 	mov    rax,QWORD PTR [rip+0xffffffffffc1286a]        # 4144a0 <current>
  801c36:	8b 55 ec             	mov    edx,DWORD PTR [rbp-0x14]
  801c39:	48 63 d2             	movsxd rdx,edx
  801c3c:	48 83 c2 18          	add    rdx,0x18
  801c40:	48 8b 44 d0 04       	mov    rax,QWORD PTR [rax+rdx*8+0x4]
  801c45:	48 89 45 f8          	mov    QWORD PTR [rbp-0x8],rax
    return f->position;
  801c49:	48 8b 45 f8          	mov    rax,QWORD PTR [rbp-0x8]
  801c4d:	48 8b 00             	mov    rax,QWORD PTR [rax]
}
  801c50:	5d                   	pop    rbp
  801c51:	c3                   	ret    

0000000000801c52 <get_vfs_entry>:
vfs_dir_entry *get_vfs_entry(int fno)
{
  801c52:	f3 0f 1e fa          	endbr64 
  801c56:	55                   	push   rbp
  801c57:	48 89 e5             	mov    rbp,rsp
  801c5a:	89 7d ec             	mov    DWORD PTR [rbp-0x14],edi
    for(int i=0;i<MAX_OPEN_FILES;i++)
  801c5d:	c7 45 fc 00 00 00 00 	mov    DWORD PTR [rbp-0x4],0x0
  801c64:	eb 3f                	jmp    801ca5 <get_vfs_entry+0x53>
    {
        if(opened[i].fno==fno)
  801c66:	8b 45 fc             	mov    eax,DWORD PTR [rbp-0x4]
  801c69:	48 63 d0             	movsxd rdx,eax
  801c6c:	48 89 d0             	mov    rax,rdx
  801c6f:	48 01 c0             	add    rax,rax
  801c72:	48 01 d0             	add    rax,rdx
  801c75:	48 c1 e0 05          	shl    rax,0x5
  801c79:	48 05 60 06 40 00    	add    rax,0x400660
  801c7f:	8b 00                	mov    eax,DWORD PTR [rax]
  801c81:	39 45 ec             	cmp    DWORD PTR [rbp-0x14],eax
  801c84:	75 1b                	jne    801ca1 <get_vfs_entry+0x4f>
        {
            return &opened[i];
  801c86:	8b 45 fc             	mov    eax,DWORD PTR [rbp-0x4]
  801c89:	48 63 d0             	movsxd rdx,eax
  801c8c:	48 89 d0             	mov    rax,rdx
  801c8f:	48 01 c0             	add    rax,rax
  801c92:	48 01 d0             	add    rax,rdx
  801c95:	48 c1 e0 05          	shl    rax,0x5
  801c99:	48 05 60 06 40 00    	add    rax,0x400660
  801c9f:	eb 0f                	jmp    801cb0 <get_vfs_entry+0x5e>
    for(int i=0;i<MAX_OPEN_FILES;i++)
  801ca1:	83 45 fc 01          	add    DWORD PTR [rbp-0x4],0x1
  801ca5:	83 7d fc 3f          	cmp    DWORD PTR [rbp-0x4],0x3f
  801ca9:	7e bb                	jle    801c66 <get_vfs_entry+0x14>
        }
    }
    return NULL;
  801cab:	b8 00 00 00 00       	mov    eax,0x0
}
  801cb0:	5d                   	pop    rbp
  801cb1:	c3                   	ret    

0000000000801cb2 <brelse>:

//释放缓冲区（只释放这一块）
int brelse(buffer_head* bh)
{
  801cb2:	f3 0f 1e fa          	endbr64 
  801cb6:	55                   	push   rbp
  801cb7:	48 89 e5             	mov    rbp,rsp
  801cba:	48 83 ec 10          	sub    rsp,0x10
  801cbe:	48 89 7d f8          	mov    QWORD PTR [rbp-0x8],rdi
    wait_on_buf(bh);
  801cc2:	48 8b 45 f8          	mov    rax,QWORD PTR [rbp-0x8]
  801cc6:	48 89 c7             	mov    rdi,rax
  801cc9:	e8 a0 04 00 00       	call   80216e <wait_on_buf>
    if(bh->b_count==0)return -1;
  801cce:	48 8b 45 f8          	mov    rax,QWORD PTR [rbp-0x8]
  801cd2:	0f b6 40 14          	movzx  eax,BYTE PTR [rax+0x14]
  801cd6:	84 c0                	test   al,al
  801cd8:	75 07                	jne    801ce1 <brelse+0x2f>
  801cda:	b8 ff ff ff ff       	mov    eax,0xffffffff
  801cdf:	eb 32                	jmp    801d13 <brelse+0x61>
    bh->b_count--;
  801ce1:	48 8b 45 f8          	mov    rax,QWORD PTR [rbp-0x8]
  801ce5:	0f b6 40 14          	movzx  eax,BYTE PTR [rax+0x14]
  801ce9:	8d 50 ff             	lea    edx,[rax-0x1]
  801cec:	48 8b 45 f8          	mov    rax,QWORD PTR [rbp-0x8]
  801cf0:	88 50 14             	mov    BYTE PTR [rax+0x14],dl
    if(bh->b_count==0)
  801cf3:	48 8b 45 f8          	mov    rax,QWORD PTR [rbp-0x8]
  801cf7:	0f b6 40 14          	movzx  eax,BYTE PTR [rax+0x14]
  801cfb:	84 c0                	test   al,al
  801cfd:	75 0f                	jne    801d0e <brelse+0x5c>
        vmfree(bh->b_data);
  801cff:	48 8b 45 f8          	mov    rax,QWORD PTR [rbp-0x8]
  801d03:	48 8b 00             	mov    rax,QWORD PTR [rax]
  801d06:	48 89 c7             	mov    rdi,rax
  801d09:	e8 91 f4 ff ff       	call   80119f <vmfree>
    return 0;
  801d0e:	b8 00 00 00 00       	mov    eax,0x0
}
  801d13:	c9                   	leave  
  801d14:	c3                   	ret    

0000000000801d15 <bread>:
//从设备中读取指定设备的指定块并返回缓冲区
buffer_head* bread(int dev,int blk)
{
  801d15:	f3 0f 1e fa          	endbr64 
  801d19:	55                   	push   rbp
  801d1a:	48 89 e5             	mov    rbp,rsp
  801d1d:	48 81 ec e0 00 00 00 	sub    rsp,0xe0
  801d24:	89 bd 2c ff ff ff    	mov    DWORD PTR [rbp-0xd4],edi
  801d2a:	89 b5 28 ff ff ff    	mov    DWORD PTR [rbp-0xd8],esi

    buffer_head *bh=get_buf(dev,blk);
  801d30:	8b 95 28 ff ff ff    	mov    edx,DWORD PTR [rbp-0xd8]
  801d36:	8b 85 2c ff ff ff    	mov    eax,DWORD PTR [rbp-0xd4]
  801d3c:	89 d6                	mov    esi,edx
  801d3e:	89 c7                	mov    edi,eax
  801d40:	e8 78 02 00 00       	call   801fbd <get_buf>
  801d45:	48 89 45 f8          	mov    QWORD PTR [rbp-0x8],rax
    if(!bh)return -1;//申请失败
  801d49:	48 83 7d f8 00       	cmp    QWORD PTR [rbp-0x8],0x0
  801d4e:	75 09                	jne    801d59 <bread+0x44>
  801d50:	48 c7 c0 ff ff ff ff 	mov    rax,0xffffffffffffffff
  801d57:	eb 75                	jmp    801dce <bread+0xb9>
    if(!bh->b_uptodate)
  801d59:	48 8b 45 f8          	mov    rax,QWORD PTR [rbp-0x8]
  801d5d:	0f b6 40 12          	movzx  eax,BYTE PTR [rax+0x12]
  801d61:	84 c0                	test   al,al
  801d63:	75 65                	jne    801dca <bread+0xb5>
    {
        driver_args arg;
        arg.dev=dev;
  801d65:	8b 85 2c ff ff ff    	mov    eax,DWORD PTR [rbp-0xd4]
  801d6b:	89 45 bc             	mov    DWORD PTR [rbp-0x44],eax
        arg.cmd=DRVF_READ;
  801d6e:	c7 45 d8 02 00 00 00 	mov    DWORD PTR [rbp-0x28],0x2
        arg.dist_addr=bh->b_data;
  801d75:	48 8b 45 f8          	mov    rax,QWORD PTR [rbp-0x8]
  801d79:	48 8b 00             	mov    rax,QWORD PTR [rax]
  801d7c:	89 85 34 ff ff ff    	mov    DWORD PTR [rbp-0xcc],eax
        arg.len=BLOCK_SIZE;
  801d82:	c7 85 48 ff ff ff 00 	mov    DWORD PTR [rbp-0xb8],0x200
  801d89:	02 00 00 
        arg.lba=bh->b_blocknr;
  801d8c:	48 8b 45 f8          	mov    rax,QWORD PTR [rbp-0x8]
  801d90:	48 8b 40 08          	mov    rax,QWORD PTR [rax+0x8]
  801d94:	89 85 30 ff ff ff    	mov    DWORD PTR [rbp-0xd0],eax
        arg.sec_c=BLOCK_SIZE/512;//之后会改
  801d9a:	c7 85 48 ff ff ff 01 	mov    DWORD PTR [rbp-0xb8],0x1
  801da1:	00 00 00 
        //lock_buffer(bh);//锁定缓冲块直到读取完成
        int reqi=make_request(&arg);
  801da4:	48 8d 85 30 ff ff ff 	lea    rax,[rbp-0xd0]
  801dab:	48 89 c7             	mov    rdi,rax
  801dae:	e8 71 11 00 00       	call   802f24 <make_request>
  801db3:	89 45 f4             	mov    DWORD PTR [rbp-0xc],eax
        wait_on_req(reqi);
  801db6:	8b 45 f4             	mov    eax,DWORD PTR [rbp-0xc]
  801db9:	89 c7                	mov    edi,eax
  801dbb:	e8 77 14 00 00       	call   803237 <wait_on_req>
        clear_req(reqi);
  801dc0:	8b 45 f4             	mov    eax,DWORD PTR [rbp-0xc]
  801dc3:	89 c7                	mov    edi,eax
  801dc5:	e8 9d 14 00 00       	call   803267 <clear_req>
    }
    return bh;
  801dca:	48 8b 45 f8          	mov    rax,QWORD PTR [rbp-0x8]
}
  801dce:	c9                   	leave  
  801dcf:	c3                   	ret    

0000000000801dd0 <vfs_read_file>:


int vfs_read_file(vfs_dir_entry *f,char *buf,int len)
{
  801dd0:	f3 0f 1e fa          	endbr64 
  801dd4:	55                   	push   rbp
  801dd5:	48 89 e5             	mov    rbp,rsp
  801dd8:	48 83 ec 40          	sub    rsp,0x40
  801ddc:	48 89 7d d8          	mov    QWORD PTR [rbp-0x28],rdi
  801de0:	48 89 75 d0          	mov    QWORD PTR [rbp-0x30],rsi
  801de4:	89 55 cc             	mov    DWORD PTR [rbp-0x34],edx
    int dev=f->dev;
  801de7:	48 8b 45 d8          	mov    rax,QWORD PTR [rbp-0x28]
  801deb:	8b 40 20             	mov    eax,DWORD PTR [rax+0x20]
  801dee:	89 45 fc             	mov    DWORD PTR [rbp-0x4],eax
    do{
        int block=get_according_bnr(f);
  801df1:	48 8b 45 d8          	mov    rax,QWORD PTR [rbp-0x28]
  801df5:	48 89 c7             	mov    rdi,rax
  801df8:	e8 80 01 00 00       	call   801f7d <get_according_bnr>
  801dfd:	89 45 f8             	mov    DWORD PTR [rbp-0x8],eax
        buffer_head* bh=bread(dev,block);
  801e00:	8b 55 f8             	mov    edx,DWORD PTR [rbp-0x8]
  801e03:	8b 45 fc             	mov    eax,DWORD PTR [rbp-0x4]
  801e06:	89 d6                	mov    esi,edx
  801e08:	89 c7                	mov    edi,eax
  801e0a:	e8 06 ff ff ff       	call   801d15 <bread>
  801e0f:	48 89 45 f0          	mov    QWORD PTR [rbp-0x10],rax
        int size=len>BLOCK_SIZE?BLOCK_SIZE:len;//一次最多读一块，如果len大于一块，就只能读一块
  801e13:	8b 45 cc             	mov    eax,DWORD PTR [rbp-0x34]
  801e16:	ba 00 02 00 00       	mov    edx,0x200
  801e1b:	39 d0                	cmp    eax,edx
  801e1d:	0f 4f c2             	cmovg  eax,edx
  801e20:	89 45 ec             	mov    DWORD PTR [rbp-0x14],eax
        memcpy(buf,bh->b_data,size);
  801e23:	8b 55 ec             	mov    edx,DWORD PTR [rbp-0x14]
  801e26:	48 8b 45 f0          	mov    rax,QWORD PTR [rbp-0x10]
  801e2a:	48 8b 08             	mov    rcx,QWORD PTR [rax]
  801e2d:	48 8b 45 d0          	mov    rax,QWORD PTR [rbp-0x30]
  801e31:	48 89 ce             	mov    rsi,rcx
  801e34:	48 89 c7             	mov    rdi,rax
  801e37:	e8 35 89 00 00       	call   80a771 <memcpy>
        len-=BLOCK_SIZE;
  801e3c:	81 6d cc 00 02 00 00 	sub    DWORD PTR [rbp-0x34],0x200
        //读写指针后移
        f->ptr+=size;
  801e43:	48 8b 45 d8          	mov    rax,QWORD PTR [rbp-0x28]
  801e47:	8b 50 1c             	mov    edx,DWORD PTR [rax+0x1c]
  801e4a:	8b 45 ec             	mov    eax,DWORD PTR [rbp-0x14]
  801e4d:	01 c2                	add    edx,eax
  801e4f:	48 8b 45 d8          	mov    rax,QWORD PTR [rbp-0x28]
  801e53:	89 50 1c             	mov    DWORD PTR [rax+0x1c],edx
        brelse(bh);
  801e56:	48 8b 45 f0          	mov    rax,QWORD PTR [rbp-0x10]
  801e5a:	48 89 c7             	mov    rdi,rax
  801e5d:	e8 50 fe ff ff       	call   801cb2 <brelse>
    }while(len>0);
  801e62:	83 7d cc 00          	cmp    DWORD PTR [rbp-0x34],0x0
  801e66:	7f 89                	jg     801df1 <vfs_read_file+0x21>
    return 0;
  801e68:	b8 00 00 00 00       	mov    eax,0x0
}
  801e6d:	c9                   	leave  
  801e6e:	c3                   	ret    

0000000000801e6f <vfs_write_file>:
int vfs_write_file(vfs_dir_entry *f,char *buf,int len)
{
  801e6f:	f3 0f 1e fa          	endbr64 
  801e73:	55                   	push   rbp
  801e74:	48 89 e5             	mov    rbp,rsp
  801e77:	48 83 ec 40          	sub    rsp,0x40
  801e7b:	48 89 7d d8          	mov    QWORD PTR [rbp-0x28],rdi
  801e7f:	48 89 75 d0          	mov    QWORD PTR [rbp-0x30],rsi
  801e83:	89 55 cc             	mov    DWORD PTR [rbp-0x34],edx
    int dev=f->dev;
  801e86:	48 8b 45 d8          	mov    rax,QWORD PTR [rbp-0x28]
  801e8a:	8b 40 20             	mov    eax,DWORD PTR [rax+0x20]
  801e8d:	89 45 fc             	mov    DWORD PTR [rbp-0x4],eax
    do{
        int block=get_according_bnr(f);
  801e90:	48 8b 45 d8          	mov    rax,QWORD PTR [rbp-0x28]
  801e94:	48 89 c7             	mov    rdi,rax
  801e97:	e8 e1 00 00 00       	call   801f7d <get_according_bnr>
  801e9c:	89 45 f8             	mov    DWORD PTR [rbp-0x8],eax
        buffer_head* bh=get_buf(dev,block);
  801e9f:	8b 55 f8             	mov    edx,DWORD PTR [rbp-0x8]
  801ea2:	8b 45 fc             	mov    eax,DWORD PTR [rbp-0x4]
  801ea5:	89 d6                	mov    esi,edx
  801ea7:	89 c7                	mov    edi,eax
  801ea9:	e8 0f 01 00 00       	call   801fbd <get_buf>
  801eae:	48 89 45 f0          	mov    QWORD PTR [rbp-0x10],rax
        int size=len>BLOCK_SIZE?BLOCK_SIZE:len;//一次最多读一块，如果len大于一块，就只能读一块
  801eb2:	8b 45 cc             	mov    eax,DWORD PTR [rbp-0x34]
  801eb5:	ba 00 02 00 00       	mov    edx,0x200
  801eba:	39 d0                	cmp    eax,edx
  801ebc:	0f 4f c2             	cmovg  eax,edx
  801ebf:	89 45 ec             	mov    DWORD PTR [rbp-0x14],eax
        memcpy(bh->b_data,buf,size);
  801ec2:	8b 55 ec             	mov    edx,DWORD PTR [rbp-0x14]
  801ec5:	48 8b 45 f0          	mov    rax,QWORD PTR [rbp-0x10]
  801ec9:	48 8b 00             	mov    rax,QWORD PTR [rax]
  801ecc:	48 8b 4d d0          	mov    rcx,QWORD PTR [rbp-0x30]
  801ed0:	48 89 ce             	mov    rsi,rcx
  801ed3:	48 89 c7             	mov    rdi,rax
  801ed6:	e8 96 88 00 00       	call   80a771 <memcpy>
        len-=BLOCK_SIZE;
  801edb:	81 6d cc 00 02 00 00 	sub    DWORD PTR [rbp-0x34],0x200
        //读写指针后移
        f->ptr+=size;
  801ee2:	48 8b 45 d8          	mov    rax,QWORD PTR [rbp-0x28]
  801ee6:	8b 50 1c             	mov    edx,DWORD PTR [rax+0x1c]
  801ee9:	8b 45 ec             	mov    eax,DWORD PTR [rbp-0x14]
  801eec:	01 c2                	add    edx,eax
  801eee:	48 8b 45 d8          	mov    rax,QWORD PTR [rbp-0x28]
  801ef2:	89 50 1c             	mov    DWORD PTR [rax+0x1c],edx
        bh->b_dirt=1;//修改置位
  801ef5:	48 8b 45 f0          	mov    rax,QWORD PTR [rbp-0x10]
  801ef9:	c6 40 13 01          	mov    BYTE PTR [rax+0x13],0x1
        brelse(bh);
  801efd:	48 8b 45 f0          	mov    rax,QWORD PTR [rbp-0x10]
  801f01:	48 89 c7             	mov    rdi,rax
  801f04:	e8 a9 fd ff ff       	call   801cb2 <brelse>
    }while(len>0);
  801f09:	83 7d cc 00          	cmp    DWORD PTR [rbp-0x34],0x0
  801f0d:	7f 81                	jg     801e90 <vfs_write_file+0x21>
    return 0;
  801f0f:	b8 00 00 00 00       	mov    eax,0x0
}
  801f14:	c9                   	leave  
  801f15:	c3                   	ret    

0000000000801f16 <vfs_seek_file>:

int vfs_seek_file(vfs_dir_entry *f,int offset,int origin)
{
  801f16:	f3 0f 1e fa          	endbr64 
  801f1a:	55                   	push   rbp
  801f1b:	48 89 e5             	mov    rbp,rsp
  801f1e:	48 89 7d f8          	mov    QWORD PTR [rbp-0x8],rdi
  801f22:	89 75 f4             	mov    DWORD PTR [rbp-0xc],esi
  801f25:	89 55 f0             	mov    DWORD PTR [rbp-0x10],edx
    switch (origin)
  801f28:	83 7d f0 02          	cmp    DWORD PTR [rbp-0x10],0x2
  801f2c:	74 35                	je     801f63 <vfs_seek_file+0x4d>
  801f2e:	83 7d f0 02          	cmp    DWORD PTR [rbp-0x10],0x2
  801f32:	7f 3f                	jg     801f73 <vfs_seek_file+0x5d>
  801f34:	83 7d f0 00          	cmp    DWORD PTR [rbp-0x10],0x0
  801f38:	74 08                	je     801f42 <vfs_seek_file+0x2c>
  801f3a:	83 7d f0 01          	cmp    DWORD PTR [rbp-0x10],0x1
  801f3e:	74 0e                	je     801f4e <vfs_seek_file+0x38>
        break;
    case SEEK_END:
        f->ptr=f->size;
        break;
    default:
        break;
  801f40:	eb 31                	jmp    801f73 <vfs_seek_file+0x5d>
        f->ptr=offset;
  801f42:	48 8b 45 f8          	mov    rax,QWORD PTR [rbp-0x8]
  801f46:	8b 55 f4             	mov    edx,DWORD PTR [rbp-0xc]
  801f49:	89 50 1c             	mov    DWORD PTR [rax+0x1c],edx
        break;
  801f4c:	eb 26                	jmp    801f74 <vfs_seek_file+0x5e>
        f->ptr+=offset;
  801f4e:	48 8b 45 f8          	mov    rax,QWORD PTR [rbp-0x8]
  801f52:	8b 50 1c             	mov    edx,DWORD PTR [rax+0x1c]
  801f55:	8b 45 f4             	mov    eax,DWORD PTR [rbp-0xc]
  801f58:	01 c2                	add    edx,eax
  801f5a:	48 8b 45 f8          	mov    rax,QWORD PTR [rbp-0x8]
  801f5e:	89 50 1c             	mov    DWORD PTR [rax+0x1c],edx
        break;
  801f61:	eb 11                	jmp    801f74 <vfs_seek_file+0x5e>
        f->ptr=f->size;
  801f63:	48 8b 45 f8          	mov    rax,QWORD PTR [rbp-0x8]
  801f67:	8b 50 18             	mov    edx,DWORD PTR [rax+0x18]
  801f6a:	48 8b 45 f8          	mov    rax,QWORD PTR [rbp-0x8]
  801f6e:	89 50 1c             	mov    DWORD PTR [rax+0x1c],edx
        break;
  801f71:	eb 01                	jmp    801f74 <vfs_seek_file+0x5e>
        break;
  801f73:	90                   	nop
    }
    return f->ptr;
  801f74:	48 8b 45 f8          	mov    rax,QWORD PTR [rbp-0x8]
  801f78:	8b 40 1c             	mov    eax,DWORD PTR [rax+0x1c]
}
  801f7b:	5d                   	pop    rbp
  801f7c:	c3                   	ret    

0000000000801f7d <get_according_bnr>:
//返回文件ptr在块设备中的块号
int get_according_bnr(vfs_dir_entry *f)
{
  801f7d:	f3 0f 1e fa          	endbr64 
  801f81:	55                   	push   rbp
  801f82:	48 89 e5             	mov    rbp,rsp
  801f85:	48 83 ec 10          	sub    rsp,0x10
  801f89:	48 89 7d f8          	mov    QWORD PTR [rbp-0x8],rdi
    return vols[f->voln].fs->get_according_bnr(f);
  801f8d:	48 8b 45 f8          	mov    rax,QWORD PTR [rbp-0x8]
  801f91:	8b 40 08             	mov    eax,DWORD PTR [rax+0x8]
  801f94:	48 63 d0             	movsxd rdx,eax
  801f97:	48 89 d0             	mov    rax,rdx
  801f9a:	48 c1 e0 02          	shl    rax,0x2
  801f9e:	48 01 d0             	add    rax,rdx
  801fa1:	48 c1 e0 03          	shl    rax,0x3
  801fa5:	48 05 58 02 40 00    	add    rax,0x400258
  801fab:	48 8b 00             	mov    rax,QWORD PTR [rax]
  801fae:	48 8b 50 08          	mov    rdx,QWORD PTR [rax+0x8]
  801fb2:	48 8b 45 f8          	mov    rax,QWORD PTR [rbp-0x8]
  801fb6:	48 89 c7             	mov    rdi,rax
  801fb9:	ff d2                	call   rdx

}
  801fbb:	c9                   	leave  
  801fbc:	c3                   	ret    

0000000000801fbd <get_buf>:
//获取或者新建一个和dev上block相对应的缓冲区。
buffer_head* get_buf(int dev,int block)
{
  801fbd:	f3 0f 1e fa          	endbr64 
  801fc1:	55                   	push   rbp
  801fc2:	48 89 e5             	mov    rbp,rsp
  801fc5:	48 83 ec 20          	sub    rsp,0x20
  801fc9:	89 7d ec             	mov    DWORD PTR [rbp-0x14],edi
  801fcc:	89 75 e8             	mov    DWORD PTR [rbp-0x18],esi
    for(int i=0;i<NR_BUFFERHEADS;i++)
  801fcf:	c7 45 fc 00 00 00 00 	mov    DWORD PTR [rbp-0x4],0x0
  801fd6:	e9 b9 00 00 00       	jmp    802094 <get_buf+0xd7>
    {
        if(buffer_heads[i].b_dev==dev&&buffer_heads[i].b_blocknr==block)
  801fdb:	8b 45 fc             	mov    eax,DWORD PTR [rbp-0x4]
  801fde:	48 98                	cdqe   
  801fe0:	48 c1 e0 06          	shl    rax,0x6
  801fe4:	48 05 90 26 40 00    	add    rax,0x402690
  801fea:	0f b7 00             	movzx  eax,WORD PTR [rax]
  801fed:	0f b7 c0             	movzx  eax,ax
  801ff0:	39 45 ec             	cmp    DWORD PTR [rbp-0x14],eax
  801ff3:	0f 85 97 00 00 00    	jne    802090 <get_buf+0xd3>
  801ff9:	8b 45 fc             	mov    eax,DWORD PTR [rbp-0x4]
  801ffc:	48 98                	cdqe   
  801ffe:	48 c1 e0 06          	shl    rax,0x6
  802002:	48 05 88 26 40 00    	add    rax,0x402688
  802008:	48 8b 10             	mov    rdx,QWORD PTR [rax]
  80200b:	8b 45 e8             	mov    eax,DWORD PTR [rbp-0x18]
  80200e:	48 98                	cdqe   
  802010:	48 39 c2             	cmp    rdx,rax
  802013:	75 7b                	jne    802090 <get_buf+0xd3>
        {
            repeat:
  802015:	90                   	nop
            wait_on_buf(&buffer_heads[i]);//等待解锁
  802016:	8b 45 fc             	mov    eax,DWORD PTR [rbp-0x4]
  802019:	48 98                	cdqe   
  80201b:	48 c1 e0 06          	shl    rax,0x6
  80201f:	48 05 80 26 40 00    	add    rax,0x402680
  802025:	48 89 c7             	mov    rdi,rax
  802028:	e8 41 01 00 00       	call   80216e <wait_on_buf>
            if(buffer_heads[i].b_count>0)//别的进程正在用
  80202d:	8b 45 fc             	mov    eax,DWORD PTR [rbp-0x4]
  802030:	48 98                	cdqe   
  802032:	48 c1 e0 06          	shl    rax,0x6
  802036:	48 05 94 26 40 00    	add    rax,0x402694
  80203c:	0f b6 00             	movzx  eax,BYTE PTR [rax]
  80203f:	84 c0                	test   al,al
  802041:	74 02                	je     802045 <get_buf+0x88>
                goto repeat;
  802043:	eb d1                	jmp    802016 <get_buf+0x59>
            if(!(buffer_heads[i].b_dev==dev&&buffer_heads[i].b_blocknr==block))//别的进程修改了
  802045:	8b 45 fc             	mov    eax,DWORD PTR [rbp-0x4]
  802048:	48 98                	cdqe   
  80204a:	48 c1 e0 06          	shl    rax,0x6
  80204e:	48 05 90 26 40 00    	add    rax,0x402690
  802054:	0f b7 00             	movzx  eax,WORD PTR [rax]
  802057:	0f b7 c0             	movzx  eax,ax
  80205a:	39 45 ec             	cmp    DWORD PTR [rbp-0x14],eax
  80205d:	75 30                	jne    80208f <get_buf+0xd2>
  80205f:	8b 45 fc             	mov    eax,DWORD PTR [rbp-0x4]
  802062:	48 98                	cdqe   
  802064:	48 c1 e0 06          	shl    rax,0x6
  802068:	48 05 88 26 40 00    	add    rax,0x402688
  80206e:	48 8b 10             	mov    rdx,QWORD PTR [rax]
  802071:	8b 45 e8             	mov    eax,DWORD PTR [rbp-0x18]
  802074:	48 98                	cdqe   
  802076:	48 39 c2             	cmp    rdx,rax
  802079:	75 14                	jne    80208f <get_buf+0xd2>
                continue;
            return &buffer_heads[i];
  80207b:	8b 45 fc             	mov    eax,DWORD PTR [rbp-0x4]
  80207e:	48 98                	cdqe   
  802080:	48 c1 e0 06          	shl    rax,0x6
  802084:	48 05 80 26 40 00    	add    rax,0x402680
  80208a:	e9 dd 00 00 00       	jmp    80216c <get_buf+0x1af>
                continue;
  80208f:	90                   	nop
    for(int i=0;i<NR_BUFFERHEADS;i++)
  802090:	83 45 fc 01          	add    DWORD PTR [rbp-0x4],0x1
  802094:	83 7d fc 1f          	cmp    DWORD PTR [rbp-0x4],0x1f
  802098:	0f 8e 3d ff ff ff    	jle    801fdb <get_buf+0x1e>
        }
    }
    //空头中找
    for(int i=0;i<NR_BUFFERHEADS;i++)
  80209e:	c7 45 f8 00 00 00 00 	mov    DWORD PTR [rbp-0x8],0x0
  8020a5:	e9 b8 00 00 00       	jmp    802162 <get_buf+0x1a5>
    {
        if(buffer_heads[i].b_count==0)
  8020aa:	8b 45 f8             	mov    eax,DWORD PTR [rbp-0x8]
  8020ad:	48 98                	cdqe   
  8020af:	48 c1 e0 06          	shl    rax,0x6
  8020b3:	48 05 94 26 40 00    	add    rax,0x402694
  8020b9:	0f b6 00             	movzx  eax,BYTE PTR [rax]
  8020bc:	84 c0                	test   al,al
  8020be:	0f 85 9a 00 00 00    	jne    80215e <get_buf+0x1a1>
        {
            if(buffer_heads[i].b_dirt)
  8020c4:	8b 45 f8             	mov    eax,DWORD PTR [rbp-0x8]
  8020c7:	48 98                	cdqe   
  8020c9:	48 c1 e0 06          	shl    rax,0x6
  8020cd:	48 05 93 26 40 00    	add    rax,0x402693
  8020d3:	0f b6 00             	movzx  eax,BYTE PTR [rax]
  8020d6:	84 c0                	test   al,al
  8020d8:	74 2e                	je     802108 <get_buf+0x14b>
            {
                sync_buf(&buffer_heads[i]);
  8020da:	8b 45 f8             	mov    eax,DWORD PTR [rbp-0x8]
  8020dd:	48 98                	cdqe   
  8020df:	48 c1 e0 06          	shl    rax,0x6
  8020e3:	48 05 80 26 40 00    	add    rax,0x402680
  8020e9:	48 89 c7             	mov    rdi,rax
  8020ec:	e8 1b 01 00 00       	call   80220c <sync_buf>
                wait_on_buf(&buffer_heads[i]);
  8020f1:	8b 45 f8             	mov    eax,DWORD PTR [rbp-0x8]
  8020f4:	48 98                	cdqe   
  8020f6:	48 c1 e0 06          	shl    rax,0x6
  8020fa:	48 05 80 26 40 00    	add    rax,0x402680
  802100:	48 89 c7             	mov    rdi,rax
  802103:	e8 66 00 00 00       	call   80216e <wait_on_buf>
            }
            buffer_heads[i].b_count++;
  802108:	8b 45 f8             	mov    eax,DWORD PTR [rbp-0x8]
  80210b:	48 98                	cdqe   
  80210d:	48 c1 e0 06          	shl    rax,0x6
  802111:	48 05 94 26 40 00    	add    rax,0x402694
  802117:	0f b6 00             	movzx  eax,BYTE PTR [rax]
  80211a:	8d 50 01             	lea    edx,[rax+0x1]
  80211d:	8b 45 f8             	mov    eax,DWORD PTR [rbp-0x8]
  802120:	48 98                	cdqe   
  802122:	48 c1 e0 06          	shl    rax,0x6
  802126:	48 05 94 26 40 00    	add    rax,0x402694
  80212c:	88 10                	mov    BYTE PTR [rax],dl
            //给buffer分配一个实际的缓冲区
            buffer_heads[i].b_data=vmalloc();
  80212e:	b8 00 00 00 00       	mov    eax,0x0
  802133:	e8 d8 ef ff ff       	call   801110 <vmalloc>
  802138:	48 89 c2             	mov    rdx,rax
  80213b:	8b 45 f8             	mov    eax,DWORD PTR [rbp-0x8]
  80213e:	48 98                	cdqe   
  802140:	48 c1 e0 06          	shl    rax,0x6
  802144:	48 05 80 26 40 00    	add    rax,0x402680
  80214a:	48 89 10             	mov    QWORD PTR [rax],rdx
            return &buffer_heads[i];
  80214d:	8b 45 f8             	mov    eax,DWORD PTR [rbp-0x8]
  802150:	48 98                	cdqe   
  802152:	48 c1 e0 06          	shl    rax,0x6
  802156:	48 05 80 26 40 00    	add    rax,0x402680
  80215c:	eb 0e                	jmp    80216c <get_buf+0x1af>
    for(int i=0;i<NR_BUFFERHEADS;i++)
  80215e:	83 45 f8 01          	add    DWORD PTR [rbp-0x8],0x1
  802162:	83 7d f8 1f          	cmp    DWORD PTR [rbp-0x8],0x1f
  802166:	0f 8e 3e ff ff ff    	jle    8020aa <get_buf+0xed>
        }
    }
}
  80216c:	c9                   	leave  
  80216d:	c3                   	ret    

000000000080216e <wait_on_buf>:

void wait_on_buf(buffer_head* bh)
{
  80216e:	f3 0f 1e fa          	endbr64 
  802172:	55                   	push   rbp
  802173:	48 89 e5             	mov    rbp,rsp
  802176:	48 89 7d f8          	mov    QWORD PTR [rbp-0x8],rdi
    //等待缓冲区解锁
    while (bh->b_lock);
  80217a:	90                   	nop
  80217b:	48 8b 45 f8          	mov    rax,QWORD PTR [rbp-0x8]
  80217f:	0f b6 40 15          	movzx  eax,BYTE PTR [rax+0x15]
  802183:	84 c0                	test   al,al
  802185:	75 f4                	jne    80217b <wait_on_buf+0xd>
    
}
  802187:	90                   	nop
  802188:	90                   	nop
  802189:	5d                   	pop    rbp
  80218a:	c3                   	ret    

000000000080218b <scan_dev>:

//扫描块设备，读取分区，识别文件系统
int scan_dev(int dev)
{
  80218b:	f3 0f 1e fa          	endbr64 
  80218f:	55                   	push   rbp
  802190:	48 89 e5             	mov    rbp,rsp
  802193:	48 83 ec 30          	sub    rsp,0x30
  802197:	89 7d dc             	mov    DWORD PTR [rbp-0x24],edi
//    device *blkdev=get_dev(dev);
//    buffer_head* bh=bread(dev,0);
//    if(!bh)return -1;
    char* buf=vmalloc();
  80219a:	b8 00 00 00 00       	mov    eax,0x0
  80219f:	e8 6c ef ff ff       	call   801110 <vmalloc>
  8021a4:	48 89 45 e8          	mov    QWORD PTR [rbp-0x18],rax
    int r=request(DISK_MAJOR_MAJOR,DISK_CMD_READ,0,1,buf);
  8021a8:	48 8b 45 e8          	mov    rax,QWORD PTR [rbp-0x18]
  8021ac:	49 89 c0             	mov    r8,rax
  8021af:	b9 01 00 00 00       	mov    ecx,0x1
  8021b4:	ba 00 00 00 00       	mov    edx,0x0
  8021b9:	be 20 00 00 00       	mov    esi,0x20
  8021be:	bf 00 00 00 00       	mov    edi,0x0
  8021c3:	e8 2a 4b 00 00       	call   806cf2 <request>
  8021c8:	89 45 e4             	mov    DWORD PTR [rbp-0x1c],eax
    chk_result(r);
  8021cb:	8b 45 e4             	mov    eax,DWORD PTR [rbp-0x1c]
  8021ce:	89 c7                	mov    edi,eax
  8021d0:	e8 d1 51 00 00       	call   8073a6 <chk_result>

    dpt_t* dpte=buf+0x1be;
  8021d5:	48 8b 45 e8          	mov    rax,QWORD PTR [rbp-0x18]
  8021d9:	48 05 be 01 00 00    	add    rax,0x1be
  8021df:	48 89 45 f8          	mov    QWORD PTR [rbp-0x8],rax
    for(int i=0;i<4;i++)
  8021e3:	c7 45 f4 00 00 00 00 	mov    DWORD PTR [rbp-0xc],0x0
  8021ea:	eb 13                	jmp    8021ff <scan_dev+0x74>
    {
//        blkdev->par[i].type=dpte->type;
        int stlba=dpte->start_lba;
  8021ec:	48 8b 45 f8          	mov    rax,QWORD PTR [rbp-0x8]
  8021f0:	8b 40 08             	mov    eax,DWORD PTR [rax+0x8]
  8021f3:	89 45 e0             	mov    DWORD PTR [rbp-0x20],eax
//        {
//            printf("err:unrecognised partition fs.\n");
//        }

//        blkdev->par[i].end_sec=dpte->end_lba;
        dpte++;
  8021f6:	48 83 45 f8 10       	add    QWORD PTR [rbp-0x8],0x10
    for(int i=0;i<4;i++)
  8021fb:	83 45 f4 01          	add    DWORD PTR [rbp-0xc],0x1
  8021ff:	83 7d f4 03          	cmp    DWORD PTR [rbp-0xc],0x3
  802203:	7e e7                	jle    8021ec <scan_dev+0x61>
    }
//    brelse(bh);
    return 0;
  802205:	b8 00 00 00 00       	mov    eax,0x0
}
  80220a:	c9                   	leave  
  80220b:	c3                   	ret    

000000000080220c <sync_buf>:

int sync_buf(buffer_head* bh)
{
  80220c:	f3 0f 1e fa          	endbr64 
  802210:	55                   	push   rbp
  802211:	48 89 e5             	mov    rbp,rsp
  802214:	48 83 ec 20          	sub    rsp,0x20
  802218:	48 89 7d e8          	mov    QWORD PTR [rbp-0x18],rdi
    int dev=bh->b_dev;
  80221c:	48 8b 45 e8          	mov    rax,QWORD PTR [rbp-0x18]
  802220:	0f b7 40 10          	movzx  eax,WORD PTR [rax+0x10]
  802224:	0f b7 c0             	movzx  eax,ax
  802227:	89 45 fc             	mov    DWORD PTR [rbp-0x4],eax
    int block=bh->b_blocknr;
  80222a:	48 8b 45 e8          	mov    rax,QWORD PTR [rbp-0x18]
  80222e:	48 8b 40 08          	mov    rax,QWORD PTR [rax+0x8]
  802232:	89 45 f8             	mov    DWORD PTR [rbp-0x8],eax
    //这里需要调用块设备写函数write_block
    return write_block(dev,block,bh->b_data,BLOCK_SIZE);
  802235:	48 8b 45 e8          	mov    rax,QWORD PTR [rbp-0x18]
  802239:	48 8b 10             	mov    rdx,QWORD PTR [rax]
  80223c:	8b 75 f8             	mov    esi,DWORD PTR [rbp-0x8]
  80223f:	8b 45 fc             	mov    eax,DWORD PTR [rbp-0x4]
  802242:	b9 00 02 00 00       	mov    ecx,0x200
  802247:	89 c7                	mov    edi,eax
  802249:	e8 02 00 00 00       	call   802250 <write_block>

}
  80224e:	c9                   	leave  
  80224f:	c3                   	ret    

0000000000802250 <write_block>:
//操作块设备函数
int write_block(int dev,int block,char *buf,int len)
{
  802250:	f3 0f 1e fa          	endbr64 
  802254:	55                   	push   rbp
  802255:	48 89 e5             	mov    rbp,rsp
  802258:	48 83 ec 30          	sub    rsp,0x30
  80225c:	89 7d ec             	mov    DWORD PTR [rbp-0x14],edi
  80225f:	89 75 e8             	mov    DWORD PTR [rbp-0x18],esi
  802262:	48 89 55 e0          	mov    QWORD PTR [rbp-0x20],rdx
  802266:	89 4d dc             	mov    DWORD PTR [rbp-0x24],ecx
    do{
        buffer_head* bh=get_buf(dev,block);
  802269:	8b 55 e8             	mov    edx,DWORD PTR [rbp-0x18]
  80226c:	8b 45 ec             	mov    eax,DWORD PTR [rbp-0x14]
  80226f:	89 d6                	mov    esi,edx
  802271:	89 c7                	mov    edi,eax
  802273:	e8 45 fd ff ff       	call   801fbd <get_buf>
  802278:	48 89 45 f8          	mov    QWORD PTR [rbp-0x8],rax
        int size=len>BLOCK_SIZE?BLOCK_SIZE:len;//一次最多读一块，如果len大于一块，就只能读一块
  80227c:	8b 45 dc             	mov    eax,DWORD PTR [rbp-0x24]
  80227f:	ba 00 02 00 00       	mov    edx,0x200
  802284:	39 d0                	cmp    eax,edx
  802286:	0f 4f c2             	cmovg  eax,edx
  802289:	89 45 f4             	mov    DWORD PTR [rbp-0xc],eax
        memcpy(bh->b_data,buf,size);
  80228c:	8b 55 f4             	mov    edx,DWORD PTR [rbp-0xc]
  80228f:	48 8b 45 f8          	mov    rax,QWORD PTR [rbp-0x8]
  802293:	48 8b 00             	mov    rax,QWORD PTR [rax]
  802296:	48 8b 4d e0          	mov    rcx,QWORD PTR [rbp-0x20]
  80229a:	48 89 ce             	mov    rsi,rcx
  80229d:	48 89 c7             	mov    rdi,rax
  8022a0:	e8 cc 84 00 00       	call   80a771 <memcpy>
        len-=BLOCK_SIZE;
  8022a5:	81 6d dc 00 02 00 00 	sub    DWORD PTR [rbp-0x24],0x200
        bh->b_dirt=1;//修改置位
  8022ac:	48 8b 45 f8          	mov    rax,QWORD PTR [rbp-0x8]
  8022b0:	c6 40 13 01          	mov    BYTE PTR [rax+0x13],0x1
        brelse(bh);
  8022b4:	48 8b 45 f8          	mov    rax,QWORD PTR [rbp-0x8]
  8022b8:	48 89 c7             	mov    rdi,rax
  8022bb:	e8 f2 f9 ff ff       	call   801cb2 <brelse>
    }while(len>0);
  8022c0:	83 7d dc 00          	cmp    DWORD PTR [rbp-0x24],0x0
  8022c4:	7f a3                	jg     802269 <write_block+0x19>
    return 0;
  8022c6:	b8 00 00 00 00       	mov    eax,0x0
}
  8022cb:	c9                   	leave  
  8022cc:	c3                   	ret    

00000000008022cd <read_block>:
int read_block(int dev,int block,char* buf,int len)
{
  8022cd:	f3 0f 1e fa          	endbr64 
  8022d1:	55                   	push   rbp
  8022d2:	48 89 e5             	mov    rbp,rsp
  8022d5:	48 83 ec 30          	sub    rsp,0x30
  8022d9:	89 7d ec             	mov    DWORD PTR [rbp-0x14],edi
  8022dc:	89 75 e8             	mov    DWORD PTR [rbp-0x18],esi
  8022df:	48 89 55 e0          	mov    QWORD PTR [rbp-0x20],rdx
  8022e3:	89 4d dc             	mov    DWORD PTR [rbp-0x24],ecx
    do{
        buffer_head* bh=bread(dev,block);
  8022e6:	8b 55 e8             	mov    edx,DWORD PTR [rbp-0x18]
  8022e9:	8b 45 ec             	mov    eax,DWORD PTR [rbp-0x14]
  8022ec:	89 d6                	mov    esi,edx
  8022ee:	89 c7                	mov    edi,eax
  8022f0:	e8 20 fa ff ff       	call   801d15 <bread>
  8022f5:	48 89 45 f8          	mov    QWORD PTR [rbp-0x8],rax
        int size=len>BLOCK_SIZE?BLOCK_SIZE:len;//一次最多读一块，如果len大于一块，就只能读一块
  8022f9:	8b 45 dc             	mov    eax,DWORD PTR [rbp-0x24]
  8022fc:	ba 00 02 00 00       	mov    edx,0x200
  802301:	39 d0                	cmp    eax,edx
  802303:	0f 4f c2             	cmovg  eax,edx
  802306:	89 45 f4             	mov    DWORD PTR [rbp-0xc],eax
        memcpy(buf,bh->b_data,size);
  802309:	8b 55 f4             	mov    edx,DWORD PTR [rbp-0xc]
  80230c:	48 8b 45 f8          	mov    rax,QWORD PTR [rbp-0x8]
  802310:	48 8b 08             	mov    rcx,QWORD PTR [rax]
  802313:	48 8b 45 e0          	mov    rax,QWORD PTR [rbp-0x20]
  802317:	48 89 ce             	mov    rsi,rcx
  80231a:	48 89 c7             	mov    rdi,rax
  80231d:	e8 4f 84 00 00       	call   80a771 <memcpy>
        len-=BLOCK_SIZE;
  802322:	81 6d dc 00 02 00 00 	sub    DWORD PTR [rbp-0x24],0x200
        brelse(bh);
  802329:	48 8b 45 f8          	mov    rax,QWORD PTR [rbp-0x8]
  80232d:	48 89 c7             	mov    rdi,rax
  802330:	e8 7d f9 ff ff       	call   801cb2 <brelse>
    }while(len>0);
  802335:	83 7d dc 00          	cmp    DWORD PTR [rbp-0x24],0x0
  802339:	7f ab                	jg     8022e6 <read_block+0x19>
    return 0;
  80233b:	b8 00 00 00 00       	mov    eax,0x0
}
  802340:	c9                   	leave  
  802341:	c3                   	ret    

0000000000802342 <init_vfs>:

int init_vfs()
{
  802342:	f3 0f 1e fa          	endbr64 
  802346:	55                   	push   rbp
  802347:	48 89 e5             	mov    rbp,rsp
  80234a:	48 83 ec 10          	sub    rsp,0x10
    //扫描块设备
    extern device *dev_tree[];
    extern device devs[];
    blk_dev* p=dev_tree[DEVTREE_BLKDEVI];
  80234e:	48 8b 05 2b 61 c0 ff 	mov    rax,QWORD PTR [rip+0xffffffffffc0612b]        # 408480 <dev_tree>
  802355:	48 89 45 f8          	mov    QWORD PTR [rbp-0x8],rax
    for(;p;p=p->next)
  802359:	eb 40                	jmp    80239b <init_vfs+0x59>
    {
        if(scan_dev(p-devs)!=0)return -1;
  80235b:	48 8b 45 f8          	mov    rax,QWORD PTR [rbp-0x8]
  80235f:	48 2d 80 2e 40 00    	sub    rax,0x402e80
  802365:	48 c1 f8 02          	sar    rax,0x2
  802369:	48 89 c2             	mov    rdx,rax
  80236c:	48 b8 19 9c 8f c1 f9 	movabs rax,0x8f9c18f9c18f9c19
  802373:	18 9c 8f 
  802376:	48 0f af c2          	imul   rax,rdx
  80237a:	89 c7                	mov    edi,eax
  80237c:	e8 0a fe ff ff       	call   80218b <scan_dev>
  802381:	85 c0                	test   eax,eax
  802383:	74 07                	je     80238c <init_vfs+0x4a>
  802385:	b8 ff ff ff ff       	mov    eax,0xffffffff
  80238a:	eb 1b                	jmp    8023a7 <init_vfs+0x65>
    for(;p;p=p->next)
  80238c:	48 8b 45 f8          	mov    rax,QWORD PTR [rbp-0x8]
  802390:	48 8b 80 90 00 00 00 	mov    rax,QWORD PTR [rax+0x90]
  802397:	48 89 45 f8          	mov    QWORD PTR [rbp-0x8],rax
  80239b:	48 83 7d f8 00       	cmp    QWORD PTR [rbp-0x8],0x0
  8023a0:	75 b9                	jne    80235b <init_vfs+0x19>
    }

    return 0;
  8023a2:	b8 00 00 00 00       	mov    eax,0x0
}
  8023a7:	c9                   	leave  
  8023a8:	c3                   	ret    

00000000008023a9 <init_drvdev_man>:
    [OPERATIONS_KEYBOARD]=NULL,
    [OPERATIONS_MOUSE]=NULL
};
static int rhead=0,rtail=0;
int init_drvdev_man()
{
  8023a9:	f3 0f 1e fa          	endbr64 
  8023ad:	55                   	push   rbp
  8023ae:	48 89 e5             	mov    rbp,rsp
}
  8023b1:	90                   	nop
  8023b2:	5d                   	pop    rbp
  8023b3:	c3                   	ret    

00000000008023b4 <load_driver>:
int load_driver(char *path)
{
  8023b4:	f3 0f 1e fa          	endbr64 
  8023b8:	55                   	push   rbp
  8023b9:	48 89 e5             	mov    rbp,rsp
  8023bc:	48 89 7d f8          	mov    QWORD PTR [rbp-0x8],rdi
    
}
  8023c0:	90                   	nop
  8023c1:	5d                   	pop    rbp
  8023c2:	c3                   	ret    

00000000008023c3 <reg_device>:

int reg_device(device* dev)
{
  8023c3:	f3 0f 1e fa          	endbr64 
  8023c7:	55                   	push   rbp
  8023c8:	48 89 e5             	mov    rbp,rsp
  8023cb:	53                   	push   rbx
  8023cc:	48 89 7d d0          	mov    QWORD PTR [rbp-0x30],rdi
    //TODO:查重

    //放入数组
    int i=0;
  8023d0:	c7 45 f4 00 00 00 00 	mov    DWORD PTR [rbp-0xc],0x0
    for(;i<MAX_DEVICES;i++)
  8023d7:	e9 42 01 00 00       	jmp    80251e <reg_device+0x15b>
    {
        if(devs[i].flag==DEV_FLAG_EMPTY)
  8023dc:	8b 45 f4             	mov    eax,DWORD PTR [rbp-0xc]
  8023df:	48 63 d0             	movsxd rdx,eax
  8023e2:	48 89 d0             	mov    rax,rdx
  8023e5:	48 c1 e0 02          	shl    rax,0x2
  8023e9:	48 01 d0             	add    rax,rdx
  8023ec:	48 c1 e0 02          	shl    rax,0x2
  8023f0:	48 01 d0             	add    rax,rdx
  8023f3:	48 c1 e0 03          	shl    rax,0x3
  8023f7:	48 05 90 2e 40 00    	add    rax,0x402e90
  8023fd:	8b 00                	mov    eax,DWORD PTR [rax]
  8023ff:	85 c0                	test   eax,eax
  802401:	0f 85 13 01 00 00    	jne    80251a <reg_device+0x157>
        {
            devs[i]=*dev;
  802407:	8b 45 f4             	mov    eax,DWORD PTR [rbp-0xc]
  80240a:	48 63 d0             	movsxd rdx,eax
  80240d:	48 89 d0             	mov    rax,rdx
  802410:	48 c1 e0 02          	shl    rax,0x2
  802414:	48 01 d0             	add    rax,rdx
  802417:	48 c1 e0 02          	shl    rax,0x2
  80241b:	48 01 d0             	add    rax,rdx
  80241e:	48 c1 e0 03          	shl    rax,0x3
  802422:	48 8d 90 80 2e 40 00 	lea    rdx,[rax+0x402e80]
  802429:	48 8b 45 d0          	mov    rax,QWORD PTR [rbp-0x30]
  80242d:	48 8b 08             	mov    rcx,QWORD PTR [rax]
  802430:	48 8b 58 08          	mov    rbx,QWORD PTR [rax+0x8]
  802434:	48 89 0a             	mov    QWORD PTR [rdx],rcx
  802437:	48 89 5a 08          	mov    QWORD PTR [rdx+0x8],rbx
  80243b:	48 8b 48 10          	mov    rcx,QWORD PTR [rax+0x10]
  80243f:	48 8b 58 18          	mov    rbx,QWORD PTR [rax+0x18]
  802443:	48 89 4a 10          	mov    QWORD PTR [rdx+0x10],rcx
  802447:	48 89 5a 18          	mov    QWORD PTR [rdx+0x18],rbx
  80244b:	48 8b 48 20          	mov    rcx,QWORD PTR [rax+0x20]
  80244f:	48 8b 58 28          	mov    rbx,QWORD PTR [rax+0x28]
  802453:	48 89 4a 20          	mov    QWORD PTR [rdx+0x20],rcx
  802457:	48 89 5a 28          	mov    QWORD PTR [rdx+0x28],rbx
  80245b:	48 8b 48 30          	mov    rcx,QWORD PTR [rax+0x30]
  80245f:	48 8b 58 38          	mov    rbx,QWORD PTR [rax+0x38]
  802463:	48 89 4a 30          	mov    QWORD PTR [rdx+0x30],rcx
  802467:	48 89 5a 38          	mov    QWORD PTR [rdx+0x38],rbx
  80246b:	48 8b 48 40          	mov    rcx,QWORD PTR [rax+0x40]
  80246f:	48 8b 58 48          	mov    rbx,QWORD PTR [rax+0x48]
  802473:	48 89 4a 40          	mov    QWORD PTR [rdx+0x40],rcx
  802477:	48 89 5a 48          	mov    QWORD PTR [rdx+0x48],rbx
  80247b:	48 8b 48 50          	mov    rcx,QWORD PTR [rax+0x50]
  80247f:	48 8b 58 58          	mov    rbx,QWORD PTR [rax+0x58]
  802483:	48 89 4a 50          	mov    QWORD PTR [rdx+0x50],rcx
  802487:	48 89 5a 58          	mov    QWORD PTR [rdx+0x58],rbx
  80248b:	48 8b 48 60          	mov    rcx,QWORD PTR [rax+0x60]
  80248f:	48 8b 58 68          	mov    rbx,QWORD PTR [rax+0x68]
  802493:	48 89 4a 60          	mov    QWORD PTR [rdx+0x60],rcx
  802497:	48 89 5a 68          	mov    QWORD PTR [rdx+0x68],rbx
  80249b:	48 8b 48 70          	mov    rcx,QWORD PTR [rax+0x70]
  80249f:	48 8b 58 78          	mov    rbx,QWORD PTR [rax+0x78]
  8024a3:	48 89 4a 70          	mov    QWORD PTR [rdx+0x70],rcx
  8024a7:	48 89 5a 78          	mov    QWORD PTR [rdx+0x78],rbx
  8024ab:	48 8b 88 80 00 00 00 	mov    rcx,QWORD PTR [rax+0x80]
  8024b2:	48 8b 98 88 00 00 00 	mov    rbx,QWORD PTR [rax+0x88]
  8024b9:	48 89 8a 80 00 00 00 	mov    QWORD PTR [rdx+0x80],rcx
  8024c0:	48 89 9a 88 00 00 00 	mov    QWORD PTR [rdx+0x88],rbx
  8024c7:	48 8b 88 90 00 00 00 	mov    rcx,QWORD PTR [rax+0x90]
  8024ce:	48 8b 98 98 00 00 00 	mov    rbx,QWORD PTR [rax+0x98]
  8024d5:	48 89 8a 90 00 00 00 	mov    QWORD PTR [rdx+0x90],rcx
  8024dc:	48 89 9a 98 00 00 00 	mov    QWORD PTR [rdx+0x98],rbx
  8024e3:	48 8b 80 a0 00 00 00 	mov    rax,QWORD PTR [rax+0xa0]
  8024ea:	48 89 82 a0 00 00 00 	mov    QWORD PTR [rdx+0xa0],rax
            devs[i].flag=DEV_FLAG_USED;
  8024f1:	8b 45 f4             	mov    eax,DWORD PTR [rbp-0xc]
  8024f4:	48 63 d0             	movsxd rdx,eax
  8024f7:	48 89 d0             	mov    rax,rdx
  8024fa:	48 c1 e0 02          	shl    rax,0x2
  8024fe:	48 01 d0             	add    rax,rdx
  802501:	48 c1 e0 02          	shl    rax,0x2
  802505:	48 01 d0             	add    rax,rdx
  802508:	48 c1 e0 03          	shl    rax,0x3
  80250c:	48 05 90 2e 40 00    	add    rax,0x402e90
  802512:	c7 00 01 00 00 00    	mov    DWORD PTR [rax],0x1
            break;
  802518:	eb 0e                	jmp    802528 <reg_device+0x165>
    for(;i<MAX_DEVICES;i++)
  80251a:	83 45 f4 01          	add    DWORD PTR [rbp-0xc],0x1
  80251e:	83 7d f4 3f          	cmp    DWORD PTR [rbp-0xc],0x3f
  802522:	0f 8e b4 fe ff ff    	jle    8023dc <reg_device+0x19>
        }
    }
    if(i==MAX_DEVICES)
  802528:	83 7d f4 40          	cmp    DWORD PTR [rbp-0xc],0x40
  80252c:	75 0a                	jne    802538 <reg_device+0x175>
        return -1;
  80252e:	b8 ff ff ff ff       	mov    eax,0xffffffff
  802533:	e9 6d 01 00 00       	jmp    8026a5 <reg_device+0x2e2>
    //添加到链表
    device* p=NULL,*neo=&devs[i],**pp;
  802538:	48 c7 45 e8 00 00 00 	mov    QWORD PTR [rbp-0x18],0x0
  80253f:	00 
  802540:	8b 45 f4             	mov    eax,DWORD PTR [rbp-0xc]
  802543:	48 63 d0             	movsxd rdx,eax
  802546:	48 89 d0             	mov    rax,rdx
  802549:	48 c1 e0 02          	shl    rax,0x2
  80254d:	48 01 d0             	add    rax,rdx
  802550:	48 c1 e0 02          	shl    rax,0x2
  802554:	48 01 d0             	add    rax,rdx
  802557:	48 c1 e0 03          	shl    rax,0x3
  80255b:	48 05 80 2e 40 00    	add    rax,0x402e80
  802561:	48 89 45 d8          	mov    QWORD PTR [rbp-0x28],rax
    switch (dev->type)
  802565:	48 8b 45 d0          	mov    rax,QWORD PTR [rbp-0x30]
  802569:	8b 40 08             	mov    eax,DWORD PTR [rax+0x8]
  80256c:	83 f8 03             	cmp    eax,0x3
  80256f:	74 3b                	je     8025ac <reg_device+0x1e9>
  802571:	83 f8 03             	cmp    eax,0x3
  802574:	7f 4b                	jg     8025c1 <reg_device+0x1fe>
  802576:	83 f8 01             	cmp    eax,0x1
  802579:	74 07                	je     802582 <reg_device+0x1bf>
  80257b:	83 f8 02             	cmp    eax,0x2
  80257e:	74 17                	je     802597 <reg_device+0x1d4>
  802580:	eb 3f                	jmp    8025c1 <reg_device+0x1fe>
    {
    case DEV_TYPE_BLKDEV:
        p=dev_tree[DEVTREE_BLKDEVI];pp=&dev_tree[DEVTREE_BLKDEVI];
  802582:	48 8b 05 f7 5e c0 ff 	mov    rax,QWORD PTR [rip+0xffffffffffc05ef7]        # 408480 <dev_tree>
  802589:	48 89 45 e8          	mov    QWORD PTR [rbp-0x18],rax
  80258d:	48 c7 45 e0 80 84 40 	mov    QWORD PTR [rbp-0x20],0x408480
  802594:	00 
        break;
  802595:	eb 34                	jmp    8025cb <reg_device+0x208>
    
    case DEV_TYPE_CHRDEV:
        p=dev_tree[DEVTREE_CHRDEVI];pp=&dev_tree[DEVTREE_CHRDEVI];
  802597:	48 8b 05 ea 5e c0 ff 	mov    rax,QWORD PTR [rip+0xffffffffffc05eea]        # 408488 <dev_tree+0x8>
  80259e:	48 89 45 e8          	mov    QWORD PTR [rbp-0x18],rax
  8025a2:	48 c7 45 e0 88 84 40 	mov    QWORD PTR [rbp-0x20],0x408488
  8025a9:	00 
        break;
  8025aa:	eb 1f                	jmp    8025cb <reg_device+0x208>
        
    case DEV_TYPE_OTHERS:
        p=dev_tree[DEVTREE_OTHERDEVI];pp=&dev_tree[DEVTREE_OTHERDEVI];
  8025ac:	48 8b 05 dd 5e c0 ff 	mov    rax,QWORD PTR [rip+0xffffffffffc05edd]        # 408490 <dev_tree+0x10>
  8025b3:	48 89 45 e8          	mov    QWORD PTR [rbp-0x18],rax
  8025b7:	48 c7 45 e0 90 84 40 	mov    QWORD PTR [rbp-0x20],0x408490
  8025be:	00 
        break;
  8025bf:	eb 0a                	jmp    8025cb <reg_device+0x208>
    default:return -1;//不可能有其他情况
  8025c1:	b8 ff ff ff ff       	mov    eax,0xffffffff
  8025c6:	e9 da 00 00 00       	jmp    8026a5 <reg_device+0x2e2>
    }
    if(!p){
  8025cb:	48 83 7d e8 00       	cmp    QWORD PTR [rbp-0x18],0x0
  8025d0:	75 2b                	jne    8025fd <reg_device+0x23a>
        *pp=neo;
  8025d2:	48 8b 45 e0          	mov    rax,QWORD PTR [rbp-0x20]
  8025d6:	48 8b 55 d8          	mov    rdx,QWORD PTR [rbp-0x28]
  8025da:	48 89 10             	mov    QWORD PTR [rax],rdx
        neo->prev=NULL;
  8025dd:	48 8b 45 d8          	mov    rax,QWORD PTR [rbp-0x28]
  8025e1:	48 c7 80 98 00 00 00 	mov    QWORD PTR [rax+0x98],0x0
  8025e8:	00 00 00 00 
  8025ec:	eb 3d                	jmp    80262b <reg_device+0x268>
    }
    else{
        for(;p->next;p=p->next);
  8025ee:	48 8b 45 e8          	mov    rax,QWORD PTR [rbp-0x18]
  8025f2:	48 8b 80 90 00 00 00 	mov    rax,QWORD PTR [rax+0x90]
  8025f9:	48 89 45 e8          	mov    QWORD PTR [rbp-0x18],rax
  8025fd:	48 8b 45 e8          	mov    rax,QWORD PTR [rbp-0x18]
  802601:	48 8b 80 90 00 00 00 	mov    rax,QWORD PTR [rax+0x90]
  802608:	48 85 c0             	test   rax,rax
  80260b:	75 e1                	jne    8025ee <reg_device+0x22b>
        p->next=neo;
  80260d:	48 8b 45 e8          	mov    rax,QWORD PTR [rbp-0x18]
  802611:	48 8b 55 d8          	mov    rdx,QWORD PTR [rbp-0x28]
  802615:	48 89 90 90 00 00 00 	mov    QWORD PTR [rax+0x90],rdx
        neo->prev=p;
  80261c:	48 8b 45 d8          	mov    rax,QWORD PTR [rbp-0x28]
  802620:	48 8b 55 e8          	mov    rdx,QWORD PTR [rbp-0x18]
  802624:	48 89 90 98 00 00 00 	mov    QWORD PTR [rax+0x98],rdx
    }
    neo->next=NULL;
  80262b:	48 8b 45 d8          	mov    rax,QWORD PTR [rbp-0x28]
  80262f:	48 c7 80 90 00 00 00 	mov    QWORD PTR [rax+0x90],0x0
  802636:	00 00 00 00 
    //设置相应的请求函数
    switch (neo->stype)
  80263a:	48 8b 45 d8          	mov    rax,QWORD PTR [rbp-0x28]
  80263e:	8b 40 0c             	mov    eax,DWORD PTR [rax+0xc]
  802641:	83 f8 04             	cmp    eax,0x4
  802644:	74 3b                	je     802681 <reg_device+0x2be>
  802646:	83 f8 04             	cmp    eax,0x4
  802649:	7f 56                	jg     8026a1 <reg_device+0x2de>
  80264b:	83 f8 03             	cmp    eax,0x3
  80264e:	74 21                	je     802671 <reg_device+0x2ae>
  802650:	83 f8 03             	cmp    eax,0x3
  802653:	7f 4c                	jg     8026a1 <reg_device+0x2de>
  802655:	83 f8 01             	cmp    eax,0x1
  802658:	74 07                	je     802661 <reg_device+0x29e>
  80265a:	83 f8 02             	cmp    eax,0x2
  80265d:	74 32                	je     802691 <reg_device+0x2ce>
        break;
    case DEV_STYPE_TTY:
        neo->operi=OPERATIONS_TTY;
        break;
    default:
        break;
  80265f:	eb 40                	jmp    8026a1 <reg_device+0x2de>
        neo->operi=OPERATIONS_HD;
  802661:	48 8b 45 d8          	mov    rax,QWORD PTR [rbp-0x28]
  802665:	c7 80 a0 00 00 00 00 	mov    DWORD PTR [rax+0xa0],0x0
  80266c:	00 00 00 
        break;
  80266f:	eb 31                	jmp    8026a2 <reg_device+0x2df>
        neo->operi=OPERATIONS_MOUSE;
  802671:	48 8b 45 d8          	mov    rax,QWORD PTR [rbp-0x28]
  802675:	c7 80 a0 00 00 00 02 	mov    DWORD PTR [rax+0xa0],0x2
  80267c:	00 00 00 
        break;
  80267f:	eb 21                	jmp    8026a2 <reg_device+0x2df>
        neo->operi=OPERATIONS_KEYBOARD;
  802681:	48 8b 45 d8          	mov    rax,QWORD PTR [rbp-0x28]
  802685:	c7 80 a0 00 00 00 03 	mov    DWORD PTR [rax+0xa0],0x3
  80268c:	00 00 00 
        break;
  80268f:	eb 11                	jmp    8026a2 <reg_device+0x2df>
        neo->operi=OPERATIONS_TTY;
  802691:	48 8b 45 d8          	mov    rax,QWORD PTR [rbp-0x28]
  802695:	c7 80 a0 00 00 00 01 	mov    DWORD PTR [rax+0xa0],0x1
  80269c:	00 00 00 
        break;
  80269f:	eb 01                	jmp    8026a2 <reg_device+0x2df>
        break;
  8026a1:	90                   	nop
    }
    return i;
  8026a2:	8b 45 f4             	mov    eax,DWORD PTR [rbp-0xc]
}
  8026a5:	48 8b 5d f8          	mov    rbx,QWORD PTR [rbp-0x8]
  8026a9:	c9                   	leave  
  8026aa:	c3                   	ret    

00000000008026ab <reg_driver>:


int reg_driver(driver *drv)
{
  8026ab:	f3 0f 1e fa          	endbr64 
  8026af:	55                   	push   rbp
  8026b0:	48 89 e5             	mov    rbp,rsp
  8026b3:	53                   	push   rbx
  8026b4:	48 89 7d e0          	mov    QWORD PTR [rbp-0x20],rdi
    for(int i=0;i<MAX_DRIVERS;i++)
  8026b8:	c7 45 f4 00 00 00 00 	mov    DWORD PTR [rbp-0xc],0x0
  8026bf:	e9 22 01 00 00       	jmp    8027e6 <reg_driver+0x13b>
    {
        if(drvs[i].flag==DRV_FLAG_EMPTY)
  8026c4:	8b 45 f4             	mov    eax,DWORD PTR [rbp-0xc]
  8026c7:	48 63 d0             	movsxd rdx,eax
  8026ca:	48 89 d0             	mov    rax,rdx
  8026cd:	48 c1 e0 02          	shl    rax,0x2
  8026d1:	48 01 d0             	add    rax,rdx
  8026d4:	48 c1 e0 05          	shl    rax,0x5
  8026d8:	48 05 80 58 40 00    	add    rax,0x405880
  8026de:	8b 00                	mov    eax,DWORD PTR [rax]
  8026e0:	85 c0                	test   eax,eax
  8026e2:	0f 85 fa 00 00 00    	jne    8027e2 <reg_driver+0x137>
        {
            drvs[i]=*drv;
  8026e8:	8b 45 f4             	mov    eax,DWORD PTR [rbp-0xc]
  8026eb:	48 63 d0             	movsxd rdx,eax
  8026ee:	48 89 d0             	mov    rax,rdx
  8026f1:	48 c1 e0 02          	shl    rax,0x2
  8026f5:	48 01 d0             	add    rax,rdx
  8026f8:	48 c1 e0 05          	shl    rax,0x5
  8026fc:	48 8d 90 80 58 40 00 	lea    rdx,[rax+0x405880]
  802703:	48 8b 45 e0          	mov    rax,QWORD PTR [rbp-0x20]
  802707:	48 8b 08             	mov    rcx,QWORD PTR [rax]
  80270a:	48 8b 58 08          	mov    rbx,QWORD PTR [rax+0x8]
  80270e:	48 89 0a             	mov    QWORD PTR [rdx],rcx
  802711:	48 89 5a 08          	mov    QWORD PTR [rdx+0x8],rbx
  802715:	48 8b 48 10          	mov    rcx,QWORD PTR [rax+0x10]
  802719:	48 8b 58 18          	mov    rbx,QWORD PTR [rax+0x18]
  80271d:	48 89 4a 10          	mov    QWORD PTR [rdx+0x10],rcx
  802721:	48 89 5a 18          	mov    QWORD PTR [rdx+0x18],rbx
  802725:	48 8b 48 20          	mov    rcx,QWORD PTR [rax+0x20]
  802729:	48 8b 58 28          	mov    rbx,QWORD PTR [rax+0x28]
  80272d:	48 89 4a 20          	mov    QWORD PTR [rdx+0x20],rcx
  802731:	48 89 5a 28          	mov    QWORD PTR [rdx+0x28],rbx
  802735:	48 8b 48 30          	mov    rcx,QWORD PTR [rax+0x30]
  802739:	48 8b 58 38          	mov    rbx,QWORD PTR [rax+0x38]
  80273d:	48 89 4a 30          	mov    QWORD PTR [rdx+0x30],rcx
  802741:	48 89 5a 38          	mov    QWORD PTR [rdx+0x38],rbx
  802745:	48 8b 48 40          	mov    rcx,QWORD PTR [rax+0x40]
  802749:	48 8b 58 48          	mov    rbx,QWORD PTR [rax+0x48]
  80274d:	48 89 4a 40          	mov    QWORD PTR [rdx+0x40],rcx
  802751:	48 89 5a 48          	mov    QWORD PTR [rdx+0x48],rbx
  802755:	48 8b 48 50          	mov    rcx,QWORD PTR [rax+0x50]
  802759:	48 8b 58 58          	mov    rbx,QWORD PTR [rax+0x58]
  80275d:	48 89 4a 50          	mov    QWORD PTR [rdx+0x50],rcx
  802761:	48 89 5a 58          	mov    QWORD PTR [rdx+0x58],rbx
  802765:	48 8b 48 60          	mov    rcx,QWORD PTR [rax+0x60]
  802769:	48 8b 58 68          	mov    rbx,QWORD PTR [rax+0x68]
  80276d:	48 89 4a 60          	mov    QWORD PTR [rdx+0x60],rcx
  802771:	48 89 5a 68          	mov    QWORD PTR [rdx+0x68],rbx
  802775:	48 8b 48 70          	mov    rcx,QWORD PTR [rax+0x70]
  802779:	48 8b 58 78          	mov    rbx,QWORD PTR [rax+0x78]
  80277d:	48 89 4a 70          	mov    QWORD PTR [rdx+0x70],rcx
  802781:	48 89 5a 78          	mov    QWORD PTR [rdx+0x78],rbx
  802785:	48 8b 88 80 00 00 00 	mov    rcx,QWORD PTR [rax+0x80]
  80278c:	48 8b 98 88 00 00 00 	mov    rbx,QWORD PTR [rax+0x88]
  802793:	48 89 8a 80 00 00 00 	mov    QWORD PTR [rdx+0x80],rcx
  80279a:	48 89 9a 88 00 00 00 	mov    QWORD PTR [rdx+0x88],rbx
  8027a1:	48 8b 88 90 00 00 00 	mov    rcx,QWORD PTR [rax+0x90]
  8027a8:	48 8b 98 98 00 00 00 	mov    rbx,QWORD PTR [rax+0x98]
  8027af:	48 89 8a 90 00 00 00 	mov    QWORD PTR [rdx+0x90],rcx
  8027b6:	48 89 9a 98 00 00 00 	mov    QWORD PTR [rdx+0x98],rbx
            drvs[i].flag=DRV_FLAG_USED;
  8027bd:	8b 45 f4             	mov    eax,DWORD PTR [rbp-0xc]
  8027c0:	48 63 d0             	movsxd rdx,eax
  8027c3:	48 89 d0             	mov    rax,rdx
  8027c6:	48 c1 e0 02          	shl    rax,0x2
  8027ca:	48 01 d0             	add    rax,rdx
  8027cd:	48 c1 e0 05          	shl    rax,0x5
  8027d1:	48 05 80 58 40 00    	add    rax,0x405880
  8027d7:	c7 00 01 00 00 00    	mov    DWORD PTR [rax],0x1
            return i;
  8027dd:	8b 45 f4             	mov    eax,DWORD PTR [rbp-0xc]
  8027e0:	eb 13                	jmp    8027f5 <reg_driver+0x14a>
    for(int i=0;i<MAX_DRIVERS;i++)
  8027e2:	83 45 f4 01          	add    DWORD PTR [rbp-0xc],0x1
  8027e6:	83 7d f4 1f          	cmp    DWORD PTR [rbp-0xc],0x1f
  8027ea:	0f 8e d4 fe ff ff    	jle    8026c4 <reg_driver+0x19>
        }
    }
    return -1;
  8027f0:	b8 ff ff ff ff       	mov    eax,0xffffffff
}
  8027f5:	48 8b 5d f8          	mov    rbx,QWORD PTR [rbp-0x8]
  8027f9:	c9                   	leave  
  8027fa:	c3                   	ret    

00000000008027fb <sys_find_dev>:

int sys_find_dev(char *name)
{
  8027fb:	f3 0f 1e fa          	endbr64 
  8027ff:	55                   	push   rbp
  802800:	48 89 e5             	mov    rbp,rsp
  802803:	48 83 ec 20          	sub    rsp,0x20
  802807:	48 89 7d e8          	mov    QWORD PTR [rbp-0x18],rdi
    for(int i=0;i<MAX_DEVICES;i++)
  80280b:	c7 45 fc 00 00 00 00 	mov    DWORD PTR [rbp-0x4],0x0
  802812:	eb 6c                	jmp    802880 <sys_find_dev+0x85>
    {
        if(devs[i].flag!=DEV_FLAG_EMPTY&&strcmp(name,devs[i].name)==0)
  802814:	8b 45 fc             	mov    eax,DWORD PTR [rbp-0x4]
  802817:	48 63 d0             	movsxd rdx,eax
  80281a:	48 89 d0             	mov    rax,rdx
  80281d:	48 c1 e0 02          	shl    rax,0x2
  802821:	48 01 d0             	add    rax,rdx
  802824:	48 c1 e0 02          	shl    rax,0x2
  802828:	48 01 d0             	add    rax,rdx
  80282b:	48 c1 e0 03          	shl    rax,0x3
  80282f:	48 05 90 2e 40 00    	add    rax,0x402e90
  802835:	8b 00                	mov    eax,DWORD PTR [rax]
  802837:	85 c0                	test   eax,eax
  802839:	74 41                	je     80287c <sys_find_dev+0x81>
  80283b:	8b 45 fc             	mov    eax,DWORD PTR [rbp-0x4]
  80283e:	48 63 d0             	movsxd rdx,eax
  802841:	48 89 d0             	mov    rax,rdx
  802844:	48 c1 e0 02          	shl    rax,0x2
  802848:	48 01 d0             	add    rax,rdx
  80284b:	48 c1 e0 02          	shl    rax,0x2
  80284f:	48 01 d0             	add    rax,rdx
  802852:	48 c1 e0 03          	shl    rax,0x3
  802856:	48 83 c0 10          	add    rax,0x10
  80285a:	48 05 80 2e 40 00    	add    rax,0x402e80
  802860:	48 8d 50 04          	lea    rdx,[rax+0x4]
  802864:	48 8b 45 e8          	mov    rax,QWORD PTR [rbp-0x18]
  802868:	48 89 d6             	mov    rsi,rdx
  80286b:	48 89 c7             	mov    rdi,rax
  80286e:	e8 9c 81 00 00       	call   80aa0f <strcmp>
  802873:	85 c0                	test   eax,eax
  802875:	75 05                	jne    80287c <sys_find_dev+0x81>
            return i;
  802877:	8b 45 fc             	mov    eax,DWORD PTR [rbp-0x4]
  80287a:	eb 0f                	jmp    80288b <sys_find_dev+0x90>
    for(int i=0;i<MAX_DEVICES;i++)
  80287c:	83 45 fc 01          	add    DWORD PTR [rbp-0x4],0x1
  802880:	83 7d fc 3f          	cmp    DWORD PTR [rbp-0x4],0x3f
  802884:	7e 8e                	jle    802814 <sys_find_dev+0x19>
    }
    return -1;
  802886:	b8 ff ff ff ff       	mov    eax,0xffffffff
}
  80288b:	c9                   	leave  
  80288c:	c3                   	ret    

000000000080288d <sys_operate_dev>:

int sys_operate_dev(char *name,int func,driver_args* args)
{
  80288d:	f3 0f 1e fa          	endbr64 
  802891:	55                   	push   rbp
  802892:	48 89 e5             	mov    rbp,rsp
  802895:	48 83 ec 30          	sub    rsp,0x30
  802899:	48 89 7d e8          	mov    QWORD PTR [rbp-0x18],rdi
  80289d:	89 75 e4             	mov    DWORD PTR [rbp-0x1c],esi
  8028a0:	48 89 55 d8          	mov    QWORD PTR [rbp-0x28],rdx
    int i=0;
  8028a4:	c7 45 fc 00 00 00 00 	mov    DWORD PTR [rbp-0x4],0x0
    for(;i<MAX_DEVICES;i++)
  8028ab:	eb 67                	jmp    802914 <sys_operate_dev+0x87>
    {
        if(devs[i].flag!=DEV_FLAG_EMPTY&&strcmp(name,devs[i].name)==0)
  8028ad:	8b 45 fc             	mov    eax,DWORD PTR [rbp-0x4]
  8028b0:	48 63 d0             	movsxd rdx,eax
  8028b3:	48 89 d0             	mov    rax,rdx
  8028b6:	48 c1 e0 02          	shl    rax,0x2
  8028ba:	48 01 d0             	add    rax,rdx
  8028bd:	48 c1 e0 02          	shl    rax,0x2
  8028c1:	48 01 d0             	add    rax,rdx
  8028c4:	48 c1 e0 03          	shl    rax,0x3
  8028c8:	48 05 90 2e 40 00    	add    rax,0x402e90
  8028ce:	8b 00                	mov    eax,DWORD PTR [rax]
  8028d0:	85 c0                	test   eax,eax
  8028d2:	74 3c                	je     802910 <sys_operate_dev+0x83>
  8028d4:	8b 45 fc             	mov    eax,DWORD PTR [rbp-0x4]
  8028d7:	48 63 d0             	movsxd rdx,eax
  8028da:	48 89 d0             	mov    rax,rdx
  8028dd:	48 c1 e0 02          	shl    rax,0x2
  8028e1:	48 01 d0             	add    rax,rdx
  8028e4:	48 c1 e0 02          	shl    rax,0x2
  8028e8:	48 01 d0             	add    rax,rdx
  8028eb:	48 c1 e0 03          	shl    rax,0x3
  8028ef:	48 83 c0 10          	add    rax,0x10
  8028f3:	48 05 80 2e 40 00    	add    rax,0x402e80
  8028f9:	48 8d 50 04          	lea    rdx,[rax+0x4]
  8028fd:	48 8b 45 e8          	mov    rax,QWORD PTR [rbp-0x18]
  802901:	48 89 d6             	mov    rsi,rdx
  802904:	48 89 c7             	mov    rdi,rax
  802907:	e8 03 81 00 00       	call   80aa0f <strcmp>
  80290c:	85 c0                	test   eax,eax
  80290e:	74 0c                	je     80291c <sys_operate_dev+0x8f>
    for(;i<MAX_DEVICES;i++)
  802910:	83 45 fc 01          	add    DWORD PTR [rbp-0x4],0x1
  802914:	83 7d fc 3f          	cmp    DWORD PTR [rbp-0x4],0x3f
  802918:	7e 93                	jle    8028ad <sys_operate_dev+0x20>
  80291a:	eb 01                	jmp    80291d <sys_operate_dev+0x90>
            break;
  80291c:	90                   	nop
    }
    if(i==MAX_DEVICES)return -1;
  80291d:	83 7d fc 40          	cmp    DWORD PTR [rbp-0x4],0x40
  802921:	75 0a                	jne    80292d <sys_operate_dev+0xa0>
  802923:	b8 ff ff ff ff       	mov    eax,0xffffffff
  802928:	e9 9c 02 00 00       	jmp    802bc9 <sys_operate_dev+0x33c>
    switch (func) {
  80292d:	83 7d e4 0b          	cmp    DWORD PTR [rbp-0x1c],0xb
  802931:	0f 87 8d 02 00 00    	ja     802bc4 <sys_operate_dev+0x337>
  802937:	8b 45 e4             	mov    eax,DWORD PTR [rbp-0x1c]
  80293a:	48 8b 04 c5 a8 2c 81 	mov    rax,QWORD PTR [rax*8+0x812ca8]
  802941:	00 
  802942:	3e ff e0             	notrack jmp rax
        case DRVF_OPEN :return devs[i].drv->open(args);
  802945:	8b 45 fc             	mov    eax,DWORD PTR [rbp-0x4]
  802948:	48 63 d0             	movsxd rdx,eax
  80294b:	48 89 d0             	mov    rax,rdx
  80294e:	48 c1 e0 02          	shl    rax,0x2
  802952:	48 01 d0             	add    rax,rdx
  802955:	48 c1 e0 02          	shl    rax,0x2
  802959:	48 01 d0             	add    rax,rdx
  80295c:	48 c1 e0 03          	shl    rax,0x3
  802960:	48 05 f8 2e 40 00    	add    rax,0x402ef8
  802966:	48 8b 00             	mov    rax,QWORD PTR [rax]
  802969:	48 8b 50 08          	mov    rdx,QWORD PTR [rax+0x8]
  80296d:	48 8b 45 d8          	mov    rax,QWORD PTR [rbp-0x28]
  802971:	48 89 c7             	mov    rdi,rax
  802974:	ff d2                	call   rdx
  802976:	e9 4e 02 00 00       	jmp    802bc9 <sys_operate_dev+0x33c>
        case DRVF_CLOSE:return devs[i].drv->close(args);
  80297b:	8b 45 fc             	mov    eax,DWORD PTR [rbp-0x4]
  80297e:	48 63 d0             	movsxd rdx,eax
  802981:	48 89 d0             	mov    rax,rdx
  802984:	48 c1 e0 02          	shl    rax,0x2
  802988:	48 01 d0             	add    rax,rdx
  80298b:	48 c1 e0 02          	shl    rax,0x2
  80298f:	48 01 d0             	add    rax,rdx
  802992:	48 c1 e0 03          	shl    rax,0x3
  802996:	48 05 f8 2e 40 00    	add    rax,0x402ef8
  80299c:	48 8b 00             	mov    rax,QWORD PTR [rax]
  80299f:	48 8b 50 10          	mov    rdx,QWORD PTR [rax+0x10]
  8029a3:	48 8b 45 d8          	mov    rax,QWORD PTR [rbp-0x28]
  8029a7:	48 89 c7             	mov    rdi,rax
  8029aa:	ff d2                	call   rdx
  8029ac:	e9 18 02 00 00       	jmp    802bc9 <sys_operate_dev+0x33c>
        case DRVF_READ :return devs[i].drv->read(args);
  8029b1:	8b 45 fc             	mov    eax,DWORD PTR [rbp-0x4]
  8029b4:	48 63 d0             	movsxd rdx,eax
  8029b7:	48 89 d0             	mov    rax,rdx
  8029ba:	48 c1 e0 02          	shl    rax,0x2
  8029be:	48 01 d0             	add    rax,rdx
  8029c1:	48 c1 e0 02          	shl    rax,0x2
  8029c5:	48 01 d0             	add    rax,rdx
  8029c8:	48 c1 e0 03          	shl    rax,0x3
  8029cc:	48 05 f8 2e 40 00    	add    rax,0x402ef8
  8029d2:	48 8b 00             	mov    rax,QWORD PTR [rax]
  8029d5:	48 8b 50 18          	mov    rdx,QWORD PTR [rax+0x18]
  8029d9:	48 8b 45 d8          	mov    rax,QWORD PTR [rbp-0x28]
  8029dd:	48 89 c7             	mov    rdi,rax
  8029e0:	ff d2                	call   rdx
  8029e2:	e9 e2 01 00 00       	jmp    802bc9 <sys_operate_dev+0x33c>
        case DRVF_WRITE:return devs[i].drv->write(args);
  8029e7:	8b 45 fc             	mov    eax,DWORD PTR [rbp-0x4]
  8029ea:	48 63 d0             	movsxd rdx,eax
  8029ed:	48 89 d0             	mov    rax,rdx
  8029f0:	48 c1 e0 02          	shl    rax,0x2
  8029f4:	48 01 d0             	add    rax,rdx
  8029f7:	48 c1 e0 02          	shl    rax,0x2
  8029fb:	48 01 d0             	add    rax,rdx
  8029fe:	48 c1 e0 03          	shl    rax,0x3
  802a02:	48 05 f8 2e 40 00    	add    rax,0x402ef8
  802a08:	48 8b 00             	mov    rax,QWORD PTR [rax]
  802a0b:	48 8b 50 20          	mov    rdx,QWORD PTR [rax+0x20]
  802a0f:	48 8b 45 d8          	mov    rax,QWORD PTR [rbp-0x28]
  802a13:	48 89 c7             	mov    rdi,rax
  802a16:	ff d2                	call   rdx
  802a18:	e9 ac 01 00 00       	jmp    802bc9 <sys_operate_dev+0x33c>
        case DRVF_CHK  :return devs[i].drv->check(args);
  802a1d:	8b 45 fc             	mov    eax,DWORD PTR [rbp-0x4]
  802a20:	48 63 d0             	movsxd rdx,eax
  802a23:	48 89 d0             	mov    rax,rdx
  802a26:	48 c1 e0 02          	shl    rax,0x2
  802a2a:	48 01 d0             	add    rax,rdx
  802a2d:	48 c1 e0 02          	shl    rax,0x2
  802a31:	48 01 d0             	add    rax,rdx
  802a34:	48 c1 e0 03          	shl    rax,0x3
  802a38:	48 05 f8 2e 40 00    	add    rax,0x402ef8
  802a3e:	48 8b 00             	mov    rax,QWORD PTR [rax]
  802a41:	48 8b 50 28          	mov    rdx,QWORD PTR [rax+0x28]
  802a45:	48 8b 45 d8          	mov    rax,QWORD PTR [rbp-0x28]
  802a49:	48 89 c7             	mov    rdi,rax
  802a4c:	ff d2                	call   rdx
  802a4e:	e9 76 01 00 00       	jmp    802bc9 <sys_operate_dev+0x33c>
        case DRVF_RSVD :return devs[i].drv->reserved(args);
  802a53:	8b 45 fc             	mov    eax,DWORD PTR [rbp-0x4]
  802a56:	48 63 d0             	movsxd rdx,eax
  802a59:	48 89 d0             	mov    rax,rdx
  802a5c:	48 c1 e0 02          	shl    rax,0x2
  802a60:	48 01 d0             	add    rax,rdx
  802a63:	48 c1 e0 02          	shl    rax,0x2
  802a67:	48 01 d0             	add    rax,rdx
  802a6a:	48 c1 e0 03          	shl    rax,0x3
  802a6e:	48 05 f8 2e 40 00    	add    rax,0x402ef8
  802a74:	48 8b 00             	mov    rax,QWORD PTR [rax]
  802a77:	48 8b 50 30          	mov    rdx,QWORD PTR [rax+0x30]
  802a7b:	48 8b 45 d8          	mov    rax,QWORD PTR [rbp-0x28]
  802a7f:	48 89 c7             	mov    rdi,rax
  802a82:	ff d2                	call   rdx
  802a84:	e9 40 01 00 00       	jmp    802bc9 <sys_operate_dev+0x33c>
        case DRVF_INT  :return devs[i].drv->inthandler(args);
  802a89:	8b 45 fc             	mov    eax,DWORD PTR [rbp-0x4]
  802a8c:	48 63 d0             	movsxd rdx,eax
  802a8f:	48 89 d0             	mov    rax,rdx
  802a92:	48 c1 e0 02          	shl    rax,0x2
  802a96:	48 01 d0             	add    rax,rdx
  802a99:	48 c1 e0 02          	shl    rax,0x2
  802a9d:	48 01 d0             	add    rax,rdx
  802aa0:	48 c1 e0 03          	shl    rax,0x3
  802aa4:	48 05 f8 2e 40 00    	add    rax,0x402ef8
  802aaa:	48 8b 00             	mov    rax,QWORD PTR [rax]
  802aad:	48 8b 50 38          	mov    rdx,QWORD PTR [rax+0x38]
  802ab1:	48 8b 45 d8          	mov    rax,QWORD PTR [rbp-0x28]
  802ab5:	48 89 c7             	mov    rdi,rax
  802ab8:	ff d2                	call   rdx
  802aba:	e9 0a 01 00 00       	jmp    802bc9 <sys_operate_dev+0x33c>
        case DRVF_FIND :return devs[i].drv->find(args);
  802abf:	8b 45 fc             	mov    eax,DWORD PTR [rbp-0x4]
  802ac2:	48 63 d0             	movsxd rdx,eax
  802ac5:	48 89 d0             	mov    rax,rdx
  802ac8:	48 c1 e0 02          	shl    rax,0x2
  802acc:	48 01 d0             	add    rax,rdx
  802acf:	48 c1 e0 02          	shl    rax,0x2
  802ad3:	48 01 d0             	add    rax,rdx
  802ad6:	48 c1 e0 03          	shl    rax,0x3
  802ada:	48 05 f8 2e 40 00    	add    rax,0x402ef8
  802ae0:	48 8b 00             	mov    rax,QWORD PTR [rax]
  802ae3:	48 8b 50 40          	mov    rdx,QWORD PTR [rax+0x40]
  802ae7:	48 8b 45 d8          	mov    rax,QWORD PTR [rbp-0x28]
  802aeb:	48 89 c7             	mov    rdi,rax
  802aee:	ff d2                	call   rdx
  802af0:	e9 d4 00 00 00       	jmp    802bc9 <sys_operate_dev+0x33c>
        case DRVF_RM   :return devs[i].drv->rm(args);
  802af5:	8b 45 fc             	mov    eax,DWORD PTR [rbp-0x4]
  802af8:	48 63 d0             	movsxd rdx,eax
  802afb:	48 89 d0             	mov    rax,rdx
  802afe:	48 c1 e0 02          	shl    rax,0x2
  802b02:	48 01 d0             	add    rax,rdx
  802b05:	48 c1 e0 02          	shl    rax,0x2
  802b09:	48 01 d0             	add    rax,rdx
  802b0c:	48 c1 e0 03          	shl    rax,0x3
  802b10:	48 05 f8 2e 40 00    	add    rax,0x402ef8
  802b16:	48 8b 00             	mov    rax,QWORD PTR [rax]
  802b19:	48 8b 50 48          	mov    rdx,QWORD PTR [rax+0x48]
  802b1d:	48 8b 45 d8          	mov    rax,QWORD PTR [rbp-0x28]
  802b21:	48 89 c7             	mov    rdi,rax
  802b24:	ff d2                	call   rdx
  802b26:	e9 9e 00 00 00       	jmp    802bc9 <sys_operate_dev+0x33c>
        case DRVF_TOUCH:return devs[i].drv->touch(args);
  802b2b:	8b 45 fc             	mov    eax,DWORD PTR [rbp-0x4]
  802b2e:	48 63 d0             	movsxd rdx,eax
  802b31:	48 89 d0             	mov    rax,rdx
  802b34:	48 c1 e0 02          	shl    rax,0x2
  802b38:	48 01 d0             	add    rax,rdx
  802b3b:	48 c1 e0 02          	shl    rax,0x2
  802b3f:	48 01 d0             	add    rax,rdx
  802b42:	48 c1 e0 03          	shl    rax,0x3
  802b46:	48 05 f8 2e 40 00    	add    rax,0x402ef8
  802b4c:	48 8b 00             	mov    rax,QWORD PTR [rax]
  802b4f:	48 8b 50 50          	mov    rdx,QWORD PTR [rax+0x50]
  802b53:	48 8b 45 d8          	mov    rax,QWORD PTR [rbp-0x28]
  802b57:	48 89 c7             	mov    rdi,rax
  802b5a:	ff d2                	call   rdx
  802b5c:	eb 6b                	jmp    802bc9 <sys_operate_dev+0x33c>
        case DRVF_MKDIR:return devs[i].drv->mkdir(args);
  802b5e:	8b 45 fc             	mov    eax,DWORD PTR [rbp-0x4]
  802b61:	48 63 d0             	movsxd rdx,eax
  802b64:	48 89 d0             	mov    rax,rdx
  802b67:	48 c1 e0 02          	shl    rax,0x2
  802b6b:	48 01 d0             	add    rax,rdx
  802b6e:	48 c1 e0 02          	shl    rax,0x2
  802b72:	48 01 d0             	add    rax,rdx
  802b75:	48 c1 e0 03          	shl    rax,0x3
  802b79:	48 05 f8 2e 40 00    	add    rax,0x402ef8
  802b7f:	48 8b 00             	mov    rax,QWORD PTR [rax]
  802b82:	48 8b 50 58          	mov    rdx,QWORD PTR [rax+0x58]
  802b86:	48 8b 45 d8          	mov    rax,QWORD PTR [rbp-0x28]
  802b8a:	48 89 c7             	mov    rdi,rax
  802b8d:	ff d2                	call   rdx
  802b8f:	eb 38                	jmp    802bc9 <sys_operate_dev+0x33c>
        case DRVF_LS:return    devs[i].drv->ls(args);
  802b91:	8b 45 fc             	mov    eax,DWORD PTR [rbp-0x4]
  802b94:	48 63 d0             	movsxd rdx,eax
  802b97:	48 89 d0             	mov    rax,rdx
  802b9a:	48 c1 e0 02          	shl    rax,0x2
  802b9e:	48 01 d0             	add    rax,rdx
  802ba1:	48 c1 e0 02          	shl    rax,0x2
  802ba5:	48 01 d0             	add    rax,rdx
  802ba8:	48 c1 e0 03          	shl    rax,0x3
  802bac:	48 05 f8 2e 40 00    	add    rax,0x402ef8
  802bb2:	48 8b 00             	mov    rax,QWORD PTR [rax]
  802bb5:	48 8b 50 60          	mov    rdx,QWORD PTR [rax+0x60]
  802bb9:	48 8b 45 d8          	mov    rax,QWORD PTR [rbp-0x28]
  802bbd:	48 89 c7             	mov    rdi,rax
  802bc0:	ff d2                	call   rdx
  802bc2:	eb 05                	jmp    802bc9 <sys_operate_dev+0x33c>
    }
    return -1;
  802bc4:	b8 ff ff ff ff       	mov    eax,0xffffffff
}
  802bc9:	c9                   	leave  
  802bca:	c3                   	ret    

0000000000802bcb <call_drv_func>:
int call_drv_func(int drv_n,int func_n,driver_args *args)
{
  802bcb:	f3 0f 1e fa          	endbr64 
  802bcf:	55                   	push   rbp
  802bd0:	48 89 e5             	mov    rbp,rsp
  802bd3:	48 83 ec 10          	sub    rsp,0x10
  802bd7:	89 7d fc             	mov    DWORD PTR [rbp-0x4],edi
  802bda:	89 75 f8             	mov    DWORD PTR [rbp-0x8],esi
  802bdd:	48 89 55 f0          	mov    QWORD PTR [rbp-0x10],rdx
    if(drvs[drv_n].flag==DRV_FLAG_EMPTY)return -1;
  802be1:	8b 45 fc             	mov    eax,DWORD PTR [rbp-0x4]
  802be4:	48 63 d0             	movsxd rdx,eax
  802be7:	48 89 d0             	mov    rax,rdx
  802bea:	48 c1 e0 02          	shl    rax,0x2
  802bee:	48 01 d0             	add    rax,rdx
  802bf1:	48 c1 e0 05          	shl    rax,0x5
  802bf5:	48 05 80 58 40 00    	add    rax,0x405880
  802bfb:	8b 00                	mov    eax,DWORD PTR [rax]
  802bfd:	85 c0                	test   eax,eax
  802bff:	75 0a                	jne    802c0b <call_drv_func+0x40>
  802c01:	b8 ff ff ff ff       	mov    eax,0xffffffff
  802c06:	e9 15 02 00 00       	jmp    802e20 <call_drv_func+0x255>
    /*driverfunc f=drvs[drv_n].func_thunk[func_n];
    return f(args);*/
    switch (func_n) {
  802c0b:	83 7d f8 0b          	cmp    DWORD PTR [rbp-0x8],0xb
  802c0f:	0f 87 06 02 00 00    	ja     802e1b <call_drv_func+0x250>
  802c15:	8b 45 f8             	mov    eax,DWORD PTR [rbp-0x8]
  802c18:	48 8b 04 c5 08 2d 81 	mov    rax,QWORD PTR [rax*8+0x812d08]
  802c1f:	00 
  802c20:	3e ff e0             	notrack jmp rax
        case DRVF_OPEN :return drvs[drv_n].open(args);
  802c23:	8b 45 fc             	mov    eax,DWORD PTR [rbp-0x4]
  802c26:	48 63 d0             	movsxd rdx,eax
  802c29:	48 89 d0             	mov    rax,rdx
  802c2c:	48 c1 e0 02          	shl    rax,0x2
  802c30:	48 01 d0             	add    rax,rdx
  802c33:	48 c1 e0 05          	shl    rax,0x5
  802c37:	48 05 88 58 40 00    	add    rax,0x405888
  802c3d:	48 8b 10             	mov    rdx,QWORD PTR [rax]
  802c40:	48 8b 45 f0          	mov    rax,QWORD PTR [rbp-0x10]
  802c44:	48 89 c7             	mov    rdi,rax
  802c47:	ff d2                	call   rdx
  802c49:	e9 d2 01 00 00       	jmp    802e20 <call_drv_func+0x255>
        case DRVF_CLOSE:return drvs[drv_n].close(args);
  802c4e:	8b 45 fc             	mov    eax,DWORD PTR [rbp-0x4]
  802c51:	48 63 d0             	movsxd rdx,eax
  802c54:	48 89 d0             	mov    rax,rdx
  802c57:	48 c1 e0 02          	shl    rax,0x2
  802c5b:	48 01 d0             	add    rax,rdx
  802c5e:	48 c1 e0 05          	shl    rax,0x5
  802c62:	48 05 90 58 40 00    	add    rax,0x405890
  802c68:	48 8b 10             	mov    rdx,QWORD PTR [rax]
  802c6b:	48 8b 45 f0          	mov    rax,QWORD PTR [rbp-0x10]
  802c6f:	48 89 c7             	mov    rdi,rax
  802c72:	ff d2                	call   rdx
  802c74:	e9 a7 01 00 00       	jmp    802e20 <call_drv_func+0x255>
        case DRVF_READ :return drvs[drv_n].read(args);
  802c79:	8b 45 fc             	mov    eax,DWORD PTR [rbp-0x4]
  802c7c:	48 63 d0             	movsxd rdx,eax
  802c7f:	48 89 d0             	mov    rax,rdx
  802c82:	48 c1 e0 02          	shl    rax,0x2
  802c86:	48 01 d0             	add    rax,rdx
  802c89:	48 c1 e0 05          	shl    rax,0x5
  802c8d:	48 05 98 58 40 00    	add    rax,0x405898
  802c93:	48 8b 10             	mov    rdx,QWORD PTR [rax]
  802c96:	48 8b 45 f0          	mov    rax,QWORD PTR [rbp-0x10]
  802c9a:	48 89 c7             	mov    rdi,rax
  802c9d:	ff d2                	call   rdx
  802c9f:	e9 7c 01 00 00       	jmp    802e20 <call_drv_func+0x255>
        case DRVF_WRITE:return drvs[drv_n].write(args);
  802ca4:	8b 45 fc             	mov    eax,DWORD PTR [rbp-0x4]
  802ca7:	48 63 d0             	movsxd rdx,eax
  802caa:	48 89 d0             	mov    rax,rdx
  802cad:	48 c1 e0 02          	shl    rax,0x2
  802cb1:	48 01 d0             	add    rax,rdx
  802cb4:	48 c1 e0 05          	shl    rax,0x5
  802cb8:	48 05 a0 58 40 00    	add    rax,0x4058a0
  802cbe:	48 8b 10             	mov    rdx,QWORD PTR [rax]
  802cc1:	48 8b 45 f0          	mov    rax,QWORD PTR [rbp-0x10]
  802cc5:	48 89 c7             	mov    rdi,rax
  802cc8:	ff d2                	call   rdx
  802cca:	e9 51 01 00 00       	jmp    802e20 <call_drv_func+0x255>
        case DRVF_CHK  :return drvs[drv_n].check(args);
  802ccf:	8b 45 fc             	mov    eax,DWORD PTR [rbp-0x4]
  802cd2:	48 63 d0             	movsxd rdx,eax
  802cd5:	48 89 d0             	mov    rax,rdx
  802cd8:	48 c1 e0 02          	shl    rax,0x2
  802cdc:	48 01 d0             	add    rax,rdx
  802cdf:	48 c1 e0 05          	shl    rax,0x5
  802ce3:	48 05 a8 58 40 00    	add    rax,0x4058a8
  802ce9:	48 8b 10             	mov    rdx,QWORD PTR [rax]
  802cec:	48 8b 45 f0          	mov    rax,QWORD PTR [rbp-0x10]
  802cf0:	48 89 c7             	mov    rdi,rax
  802cf3:	ff d2                	call   rdx
  802cf5:	e9 26 01 00 00       	jmp    802e20 <call_drv_func+0x255>
        case DRVF_RSVD :return drvs[drv_n].reserved(args);
  802cfa:	8b 45 fc             	mov    eax,DWORD PTR [rbp-0x4]
  802cfd:	48 63 d0             	movsxd rdx,eax
  802d00:	48 89 d0             	mov    rax,rdx
  802d03:	48 c1 e0 02          	shl    rax,0x2
  802d07:	48 01 d0             	add    rax,rdx
  802d0a:	48 c1 e0 05          	shl    rax,0x5
  802d0e:	48 05 b0 58 40 00    	add    rax,0x4058b0
  802d14:	48 8b 10             	mov    rdx,QWORD PTR [rax]
  802d17:	48 8b 45 f0          	mov    rax,QWORD PTR [rbp-0x10]
  802d1b:	48 89 c7             	mov    rdi,rax
  802d1e:	ff d2                	call   rdx
  802d20:	e9 fb 00 00 00       	jmp    802e20 <call_drv_func+0x255>
        case DRVF_INT  :return drvs[drv_n].inthandler(args);
  802d25:	8b 45 fc             	mov    eax,DWORD PTR [rbp-0x4]
  802d28:	48 63 d0             	movsxd rdx,eax
  802d2b:	48 89 d0             	mov    rax,rdx
  802d2e:	48 c1 e0 02          	shl    rax,0x2
  802d32:	48 01 d0             	add    rax,rdx
  802d35:	48 c1 e0 05          	shl    rax,0x5
  802d39:	48 05 b8 58 40 00    	add    rax,0x4058b8
  802d3f:	48 8b 10             	mov    rdx,QWORD PTR [rax]
  802d42:	48 8b 45 f0          	mov    rax,QWORD PTR [rbp-0x10]
  802d46:	48 89 c7             	mov    rdi,rax
  802d49:	ff d2                	call   rdx
  802d4b:	e9 d0 00 00 00       	jmp    802e20 <call_drv_func+0x255>
        case DRVF_FIND :return drvs[drv_n].find(args);
  802d50:	8b 45 fc             	mov    eax,DWORD PTR [rbp-0x4]
  802d53:	48 63 d0             	movsxd rdx,eax
  802d56:	48 89 d0             	mov    rax,rdx
  802d59:	48 c1 e0 02          	shl    rax,0x2
  802d5d:	48 01 d0             	add    rax,rdx
  802d60:	48 c1 e0 05          	shl    rax,0x5
  802d64:	48 05 c0 58 40 00    	add    rax,0x4058c0
  802d6a:	48 8b 10             	mov    rdx,QWORD PTR [rax]
  802d6d:	48 8b 45 f0          	mov    rax,QWORD PTR [rbp-0x10]
  802d71:	48 89 c7             	mov    rdi,rax
  802d74:	ff d2                	call   rdx
  802d76:	e9 a5 00 00 00       	jmp    802e20 <call_drv_func+0x255>
        case DRVF_RM   :return drvs[drv_n].rm(args);
  802d7b:	8b 45 fc             	mov    eax,DWORD PTR [rbp-0x4]
  802d7e:	48 63 d0             	movsxd rdx,eax
  802d81:	48 89 d0             	mov    rax,rdx
  802d84:	48 c1 e0 02          	shl    rax,0x2
  802d88:	48 01 d0             	add    rax,rdx
  802d8b:	48 c1 e0 05          	shl    rax,0x5
  802d8f:	48 05 c8 58 40 00    	add    rax,0x4058c8
  802d95:	48 8b 10             	mov    rdx,QWORD PTR [rax]
  802d98:	48 8b 45 f0          	mov    rax,QWORD PTR [rbp-0x10]
  802d9c:	48 89 c7             	mov    rdi,rax
  802d9f:	ff d2                	call   rdx
  802da1:	eb 7d                	jmp    802e20 <call_drv_func+0x255>
        case DRVF_TOUCH:return drvs[drv_n].touch(args);
  802da3:	8b 45 fc             	mov    eax,DWORD PTR [rbp-0x4]
  802da6:	48 63 d0             	movsxd rdx,eax
  802da9:	48 89 d0             	mov    rax,rdx
  802dac:	48 c1 e0 02          	shl    rax,0x2
  802db0:	48 01 d0             	add    rax,rdx
  802db3:	48 c1 e0 05          	shl    rax,0x5
  802db7:	48 05 d0 58 40 00    	add    rax,0x4058d0
  802dbd:	48 8b 10             	mov    rdx,QWORD PTR [rax]
  802dc0:	48 8b 45 f0          	mov    rax,QWORD PTR [rbp-0x10]
  802dc4:	48 89 c7             	mov    rdi,rax
  802dc7:	ff d2                	call   rdx
  802dc9:	eb 55                	jmp    802e20 <call_drv_func+0x255>
        case DRVF_MKDIR:return drvs[drv_n].mkdir(args);
  802dcb:	8b 45 fc             	mov    eax,DWORD PTR [rbp-0x4]
  802dce:	48 63 d0             	movsxd rdx,eax
  802dd1:	48 89 d0             	mov    rax,rdx
  802dd4:	48 c1 e0 02          	shl    rax,0x2
  802dd8:	48 01 d0             	add    rax,rdx
  802ddb:	48 c1 e0 05          	shl    rax,0x5
  802ddf:	48 05 d8 58 40 00    	add    rax,0x4058d8
  802de5:	48 8b 10             	mov    rdx,QWORD PTR [rax]
  802de8:	48 8b 45 f0          	mov    rax,QWORD PTR [rbp-0x10]
  802dec:	48 89 c7             	mov    rdi,rax
  802def:	ff d2                	call   rdx
  802df1:	eb 2d                	jmp    802e20 <call_drv_func+0x255>
        case DRVF_LS:return drvs[drv_n].ls(args);
  802df3:	8b 45 fc             	mov    eax,DWORD PTR [rbp-0x4]
  802df6:	48 63 d0             	movsxd rdx,eax
  802df9:	48 89 d0             	mov    rax,rdx
  802dfc:	48 c1 e0 02          	shl    rax,0x2
  802e00:	48 01 d0             	add    rax,rdx
  802e03:	48 c1 e0 05          	shl    rax,0x5
  802e07:	48 05 e0 58 40 00    	add    rax,0x4058e0
  802e0d:	48 8b 10             	mov    rdx,QWORD PTR [rax]
  802e10:	48 8b 45 f0          	mov    rax,QWORD PTR [rbp-0x10]
  802e14:	48 89 c7             	mov    rdi,rax
  802e17:	ff d2                	call   rdx
  802e19:	eb 05                	jmp    802e20 <call_drv_func+0x255>
    }
    return -1;
  802e1b:	b8 ff ff ff ff       	mov    eax,0xffffffff
}
  802e20:	c9                   	leave  
  802e21:	c3                   	ret    

0000000000802e22 <dispose_device>:
int dispose_device(int dev){
  802e22:	f3 0f 1e fa          	endbr64 
  802e26:	55                   	push   rbp
  802e27:	48 89 e5             	mov    rbp,rsp
  802e2a:	89 7d ec             	mov    DWORD PTR [rbp-0x14],edi
    if(devs[dev].flag!=DEV_FLAG_USED)return -1;
  802e2d:	8b 45 ec             	mov    eax,DWORD PTR [rbp-0x14]
  802e30:	48 63 d0             	movsxd rdx,eax
  802e33:	48 89 d0             	mov    rax,rdx
  802e36:	48 c1 e0 02          	shl    rax,0x2
  802e3a:	48 01 d0             	add    rax,rdx
  802e3d:	48 c1 e0 02          	shl    rax,0x2
  802e41:	48 01 d0             	add    rax,rdx
  802e44:	48 c1 e0 03          	shl    rax,0x3
  802e48:	48 05 90 2e 40 00    	add    rax,0x402e90
  802e4e:	8b 00                	mov    eax,DWORD PTR [rax]
  802e50:	83 f8 01             	cmp    eax,0x1
  802e53:	74 07                	je     802e5c <dispose_device+0x3a>
  802e55:	b8 ff ff ff ff       	mov    eax,0xffffffff
  802e5a:	eb 62                	jmp    802ebe <dispose_device+0x9c>
    device* p=&devs[dev];
  802e5c:	8b 45 ec             	mov    eax,DWORD PTR [rbp-0x14]
  802e5f:	48 63 d0             	movsxd rdx,eax
  802e62:	48 89 d0             	mov    rax,rdx
  802e65:	48 c1 e0 02          	shl    rax,0x2
  802e69:	48 01 d0             	add    rax,rdx
  802e6c:	48 c1 e0 02          	shl    rax,0x2
  802e70:	48 01 d0             	add    rax,rdx
  802e73:	48 c1 e0 03          	shl    rax,0x3
  802e77:	48 05 80 2e 40 00    	add    rax,0x402e80
  802e7d:	48 89 45 f8          	mov    QWORD PTR [rbp-0x8],rax
    //从链表删除
    if(p->prev)p->prev->next=p->next;
  802e81:	48 8b 45 f8          	mov    rax,QWORD PTR [rbp-0x8]
  802e85:	48 8b 80 98 00 00 00 	mov    rax,QWORD PTR [rax+0x98]
  802e8c:	48 85 c0             	test   rax,rax
  802e8f:	74 1d                	je     802eae <dispose_device+0x8c>
  802e91:	48 8b 45 f8          	mov    rax,QWORD PTR [rbp-0x8]
  802e95:	48 8b 80 98 00 00 00 	mov    rax,QWORD PTR [rax+0x98]
  802e9c:	48 8b 55 f8          	mov    rdx,QWORD PTR [rbp-0x8]
  802ea0:	48 8b 92 90 00 00 00 	mov    rdx,QWORD PTR [rdx+0x90]
  802ea7:	48 89 90 90 00 00 00 	mov    QWORD PTR [rax+0x90],rdx
    p->flag=DEV_FLAG_EMPTY;
  802eae:	48 8b 45 f8          	mov    rax,QWORD PTR [rbp-0x8]
  802eb2:	c7 40 10 00 00 00 00 	mov    DWORD PTR [rax+0x10],0x0
    return 0;
  802eb9:	b8 00 00 00 00       	mov    eax,0x0
}
  802ebe:	5d                   	pop    rbp
  802ebf:	c3                   	ret    

0000000000802ec0 <dispose_driver>:
int dispose_driver(driver *drv){
  802ec0:	f3 0f 1e fa          	endbr64 
  802ec4:	55                   	push   rbp
  802ec5:	48 89 e5             	mov    rbp,rsp
  802ec8:	48 89 7d f8          	mov    QWORD PTR [rbp-0x8],rdi

}
  802ecc:	90                   	nop
  802ecd:	5d                   	pop    rbp
  802ece:	c3                   	ret    

0000000000802ecf <get_dev>:

device *get_dev(int devi)
{
  802ecf:	f3 0f 1e fa          	endbr64 
  802ed3:	55                   	push   rbp
  802ed4:	48 89 e5             	mov    rbp,rsp
  802ed7:	89 7d fc             	mov    DWORD PTR [rbp-0x4],edi
    return &devs[devi];
  802eda:	8b 45 fc             	mov    eax,DWORD PTR [rbp-0x4]
  802edd:	48 63 d0             	movsxd rdx,eax
  802ee0:	48 89 d0             	mov    rax,rdx
  802ee3:	48 c1 e0 02          	shl    rax,0x2
  802ee7:	48 01 d0             	add    rax,rdx
  802eea:	48 c1 e0 02          	shl    rax,0x2
  802eee:	48 01 d0             	add    rax,rdx
  802ef1:	48 c1 e0 03          	shl    rax,0x3
  802ef5:	48 05 80 2e 40 00    	add    rax,0x402e80
}
  802efb:	5d                   	pop    rbp
  802efc:	c3                   	ret    

0000000000802efd <get_drv>:
driver *get_drv(int drvi)
{
  802efd:	f3 0f 1e fa          	endbr64 
  802f01:	55                   	push   rbp
  802f02:	48 89 e5             	mov    rbp,rsp
  802f05:	89 7d fc             	mov    DWORD PTR [rbp-0x4],edi
    return &drvs[drvi];
  802f08:	8b 45 fc             	mov    eax,DWORD PTR [rbp-0x4]
  802f0b:	48 63 d0             	movsxd rdx,eax
  802f0e:	48 89 d0             	mov    rax,rdx
  802f11:	48 c1 e0 02          	shl    rax,0x2
  802f15:	48 01 d0             	add    rax,rdx
  802f18:	48 c1 e0 05          	shl    rax,0x5
  802f1c:	48 05 80 58 40 00    	add    rax,0x405880
}
  802f22:	5d                   	pop    rbp
  802f23:	c3                   	ret    

0000000000802f24 <make_request>:

//发送一个操作设备的申请
int make_request(driver_args* args)
{
  802f24:	f3 0f 1e fa          	endbr64 
  802f28:	55                   	push   rbp
  802f29:	48 89 e5             	mov    rbp,rsp
  802f2c:	53                   	push   rbx
  802f2d:	48 89 7d d0          	mov    QWORD PTR [rbp-0x30],rdi
    //在数组中寻找空项
    int i=0;
  802f31:	c7 45 f4 00 00 00 00 	mov    DWORD PTR [rbp-0xc],0x0
    for(;i<NR_REQS;i++)
  802f38:	eb 23                	jmp    802f5d <make_request+0x39>
    {
        if(reqs[i].stat==REQ_STAT_EMPTY)break;
  802f3a:	8b 45 f4             	mov    eax,DWORD PTR [rbp-0xc]
  802f3d:	48 63 d0             	movsxd rdx,eax
  802f40:	48 89 d0             	mov    rax,rdx
  802f43:	48 01 c0             	add    rax,rax
  802f46:	48 01 d0             	add    rax,rdx
  802f49:	48 c1 e0 06          	shl    rax,0x6
  802f4d:	48 05 2c 6d 40 00    	add    rax,0x406d2c
  802f53:	8b 00                	mov    eax,DWORD PTR [rax]
  802f55:	85 c0                	test   eax,eax
  802f57:	74 0c                	je     802f65 <make_request+0x41>
    for(;i<NR_REQS;i++)
  802f59:	83 45 f4 01          	add    DWORD PTR [rbp-0xc],0x1
  802f5d:	83 7d f4 1f          	cmp    DWORD PTR [rbp-0xc],0x1f
  802f61:	7e d7                	jle    802f3a <make_request+0x16>
  802f63:	eb 01                	jmp    802f66 <make_request+0x42>
        if(reqs[i].stat==REQ_STAT_EMPTY)break;
  802f65:	90                   	nop
    }
    if(i==NR_REQS)return -1;//满了
  802f66:	83 7d f4 20          	cmp    DWORD PTR [rbp-0xc],0x20
  802f6a:	75 0a                	jne    802f76 <make_request+0x52>
  802f6c:	b8 ff ff ff ff       	mov    eax,0xffffffff
  802f71:	e9 e7 01 00 00       	jmp    80315d <make_request+0x239>
    reqs[i]=*args;//放入数组
  802f76:	8b 45 f4             	mov    eax,DWORD PTR [rbp-0xc]
  802f79:	48 63 d0             	movsxd rdx,eax
  802f7c:	48 89 d0             	mov    rax,rdx
  802f7f:	48 01 c0             	add    rax,rax
  802f82:	48 01 d0             	add    rax,rdx
  802f85:	48 c1 e0 06          	shl    rax,0x6
  802f89:	48 8d 90 80 6c 40 00 	lea    rdx,[rax+0x406c80]
  802f90:	48 8b 45 d0          	mov    rax,QWORD PTR [rbp-0x30]
  802f94:	48 8b 08             	mov    rcx,QWORD PTR [rax]
  802f97:	48 8b 58 08          	mov    rbx,QWORD PTR [rax+0x8]
  802f9b:	48 89 0a             	mov    QWORD PTR [rdx],rcx
  802f9e:	48 89 5a 08          	mov    QWORD PTR [rdx+0x8],rbx
  802fa2:	48 8b 48 10          	mov    rcx,QWORD PTR [rax+0x10]
  802fa6:	48 8b 58 18          	mov    rbx,QWORD PTR [rax+0x18]
  802faa:	48 89 4a 10          	mov    QWORD PTR [rdx+0x10],rcx
  802fae:	48 89 5a 18          	mov    QWORD PTR [rdx+0x18],rbx
  802fb2:	48 8b 48 20          	mov    rcx,QWORD PTR [rax+0x20]
  802fb6:	48 8b 58 28          	mov    rbx,QWORD PTR [rax+0x28]
  802fba:	48 89 4a 20          	mov    QWORD PTR [rdx+0x20],rcx
  802fbe:	48 89 5a 28          	mov    QWORD PTR [rdx+0x28],rbx
  802fc2:	48 8b 48 30          	mov    rcx,QWORD PTR [rax+0x30]
  802fc6:	48 8b 58 38          	mov    rbx,QWORD PTR [rax+0x38]
  802fca:	48 89 4a 30          	mov    QWORD PTR [rdx+0x30],rcx
  802fce:	48 89 5a 38          	mov    QWORD PTR [rdx+0x38],rbx
  802fd2:	48 8b 48 40          	mov    rcx,QWORD PTR [rax+0x40]
  802fd6:	48 8b 58 48          	mov    rbx,QWORD PTR [rax+0x48]
  802fda:	48 89 4a 40          	mov    QWORD PTR [rdx+0x40],rcx
  802fde:	48 89 5a 48          	mov    QWORD PTR [rdx+0x48],rbx
  802fe2:	48 8b 48 50          	mov    rcx,QWORD PTR [rax+0x50]
  802fe6:	48 8b 58 58          	mov    rbx,QWORD PTR [rax+0x58]
  802fea:	48 89 4a 50          	mov    QWORD PTR [rdx+0x50],rcx
  802fee:	48 89 5a 58          	mov    QWORD PTR [rdx+0x58],rbx
  802ff2:	48 8b 48 60          	mov    rcx,QWORD PTR [rax+0x60]
  802ff6:	48 8b 58 68          	mov    rbx,QWORD PTR [rax+0x68]
  802ffa:	48 89 4a 60          	mov    QWORD PTR [rdx+0x60],rcx
  802ffe:	48 89 5a 68          	mov    QWORD PTR [rdx+0x68],rbx
  803002:	48 8b 48 70          	mov    rcx,QWORD PTR [rax+0x70]
  803006:	48 8b 58 78          	mov    rbx,QWORD PTR [rax+0x78]
  80300a:	48 89 4a 70          	mov    QWORD PTR [rdx+0x70],rcx
  80300e:	48 89 5a 78          	mov    QWORD PTR [rdx+0x78],rbx
  803012:	48 8b 88 80 00 00 00 	mov    rcx,QWORD PTR [rax+0x80]
  803019:	48 8b 98 88 00 00 00 	mov    rbx,QWORD PTR [rax+0x88]
  803020:	48 89 8a 80 00 00 00 	mov    QWORD PTR [rdx+0x80],rcx
  803027:	48 89 9a 88 00 00 00 	mov    QWORD PTR [rdx+0x88],rbx
  80302e:	48 8b 88 90 00 00 00 	mov    rcx,QWORD PTR [rax+0x90]
  803035:	48 8b 98 98 00 00 00 	mov    rbx,QWORD PTR [rax+0x98]
  80303c:	48 89 8a 90 00 00 00 	mov    QWORD PTR [rdx+0x90],rcx
  803043:	48 89 9a 98 00 00 00 	mov    QWORD PTR [rdx+0x98],rbx
  80304a:	48 8b 88 a0 00 00 00 	mov    rcx,QWORD PTR [rax+0xa0]
  803051:	48 8b 98 a8 00 00 00 	mov    rbx,QWORD PTR [rax+0xa8]
  803058:	48 89 8a a0 00 00 00 	mov    QWORD PTR [rdx+0xa0],rcx
  80305f:	48 89 9a a8 00 00 00 	mov    QWORD PTR [rdx+0xa8],rbx
  803066:	48 8b 88 b0 00 00 00 	mov    rcx,QWORD PTR [rax+0xb0]
  80306d:	48 8b 98 b8 00 00 00 	mov    rbx,QWORD PTR [rax+0xb8]
  803074:	48 89 8a b0 00 00 00 	mov    QWORD PTR [rdx+0xb0],rcx
  80307b:	48 89 9a b8 00 00 00 	mov    QWORD PTR [rdx+0xb8],rbx
    //插入具体设备的等待链表中
    device* dev=&devs[args->dev];
  803082:	48 8b 45 d0          	mov    rax,QWORD PTR [rbp-0x30]
  803086:	8b 80 8c 00 00 00    	mov    eax,DWORD PTR [rax+0x8c]
  80308c:	48 63 d0             	movsxd rdx,eax
  80308f:	48 89 d0             	mov    rax,rdx
  803092:	48 c1 e0 02          	shl    rax,0x2
  803096:	48 01 d0             	add    rax,rdx
  803099:	48 c1 e0 02          	shl    rax,0x2
  80309d:	48 01 d0             	add    rax,rdx
  8030a0:	48 c1 e0 03          	shl    rax,0x3
  8030a4:	48 05 80 2e 40 00    	add    rax,0x402e80
  8030aa:	48 89 45 e0          	mov    QWORD PTR [rbp-0x20],rax
    if(!dev->waiting_reqs)//空的等待队列
  8030ae:	48 8b 45 e0          	mov    rax,QWORD PTR [rbp-0x20]
  8030b2:	48 8b 80 88 00 00 00 	mov    rax,QWORD PTR [rax+0x88]
  8030b9:	48 85 c0             	test   rax,rax
  8030bc:	75 27                	jne    8030e5 <make_request+0x1c1>
        dev->waiting_reqs=&reqs[i];
  8030be:	8b 45 f4             	mov    eax,DWORD PTR [rbp-0xc]
  8030c1:	48 63 d0             	movsxd rdx,eax
  8030c4:	48 89 d0             	mov    rax,rdx
  8030c7:	48 01 c0             	add    rax,rax
  8030ca:	48 01 d0             	add    rax,rdx
  8030cd:	48 c1 e0 06          	shl    rax,0x6
  8030d1:	48 8d 90 80 6c 40 00 	lea    rdx,[rax+0x406c80]
  8030d8:	48 8b 45 e0          	mov    rax,QWORD PTR [rbp-0x20]
  8030dc:	48 89 90 88 00 00 00 	mov    QWORD PTR [rax+0x88],rdx
  8030e3:	eb 75                	jmp    80315a <make_request+0x236>
    else{
        driver_args* p=dev->waiting_reqs;
  8030e5:	48 8b 45 e0          	mov    rax,QWORD PTR [rbp-0x20]
  8030e9:	48 8b 80 88 00 00 00 	mov    rax,QWORD PTR [rax+0x88]
  8030f0:	48 89 45 e8          	mov    QWORD PTR [rbp-0x18],rax
        for(;p->next;p=p->next);
  8030f4:	eb 0f                	jmp    803105 <make_request+0x1e1>
  8030f6:	48 8b 45 e8          	mov    rax,QWORD PTR [rbp-0x18]
  8030fa:	48 8b 80 b8 00 00 00 	mov    rax,QWORD PTR [rax+0xb8]
  803101:	48 89 45 e8          	mov    QWORD PTR [rbp-0x18],rax
  803105:	48 8b 45 e8          	mov    rax,QWORD PTR [rbp-0x18]
  803109:	48 8b 80 b8 00 00 00 	mov    rax,QWORD PTR [rax+0xb8]
  803110:	48 85 c0             	test   rax,rax
  803113:	75 e1                	jne    8030f6 <make_request+0x1d2>
        p->next=&reqs[i];
  803115:	8b 45 f4             	mov    eax,DWORD PTR [rbp-0xc]
  803118:	48 63 d0             	movsxd rdx,eax
  80311b:	48 89 d0             	mov    rax,rdx
  80311e:	48 01 c0             	add    rax,rax
  803121:	48 01 d0             	add    rax,rdx
  803124:	48 c1 e0 06          	shl    rax,0x6
  803128:	48 8d 90 80 6c 40 00 	lea    rdx,[rax+0x406c80]
  80312f:	48 8b 45 e8          	mov    rax,QWORD PTR [rbp-0x18]
  803133:	48 89 90 b8 00 00 00 	mov    QWORD PTR [rax+0xb8],rdx
        reqs[i].next=NULL;
  80313a:	8b 45 f4             	mov    eax,DWORD PTR [rbp-0xc]
  80313d:	48 63 d0             	movsxd rdx,eax
  803140:	48 89 d0             	mov    rax,rdx
  803143:	48 01 c0             	add    rax,rax
  803146:	48 01 d0             	add    rax,rdx
  803149:	48 c1 e0 06          	shl    rax,0x6
  80314d:	48 05 38 6d 40 00    	add    rax,0x406d38
  803153:	48 c7 00 00 00 00 00 	mov    QWORD PTR [rax],0x0
    }

    return i;
  80315a:	8b 45 f4             	mov    eax,DWORD PTR [rbp-0xc]
}
  80315d:	48 8b 5d f8          	mov    rbx,QWORD PTR [rbp-0x8]
  803161:	c9                   	leave  
  803162:	c3                   	ret    

0000000000803163 <do_req>:
//取出一个申请并且执行
int do_req()
{
  803163:	f3 0f 1e fa          	endbr64 
  803167:	55                   	push   rbp
  803168:	48 89 e5             	mov    rbp,rsp
  80316b:	48 83 ec 10          	sub    rsp,0x10
    //查看每个设备的请求情况
    //块设备
    for(int i=0;i<3;i++)
  80316f:	c7 45 fc 00 00 00 00 	mov    DWORD PTR [rbp-0x4],0x0
  803176:	e9 ab 00 00 00       	jmp    803226 <do_req+0xc3>
    {
        device* p=dev_tree[i];
  80317b:	8b 45 fc             	mov    eax,DWORD PTR [rbp-0x4]
  80317e:	48 98                	cdqe   
  803180:	48 8b 04 c5 80 84 40 	mov    rax,QWORD PTR [rax*8+0x408480]
  803187:	00 
  803188:	48 89 45 f0          	mov    QWORD PTR [rbp-0x10],rax
        for(;p;p=p->next)
  80318c:	e9 86 00 00 00       	jmp    803217 <do_req+0xb4>
        {
            //如果没有请求运行而且有请求要运行
            if(!p->running_req&&p->waiting_reqs)
  803191:	48 8b 45 f0          	mov    rax,QWORD PTR [rbp-0x10]
  803195:	48 8b 80 80 00 00 00 	mov    rax,QWORD PTR [rax+0x80]
  80319c:	48 85 c0             	test   rax,rax
  80319f:	75 67                	jne    803208 <do_req+0xa5>
  8031a1:	48 8b 45 f0          	mov    rax,QWORD PTR [rbp-0x10]
  8031a5:	48 8b 80 88 00 00 00 	mov    rax,QWORD PTR [rax+0x88]
  8031ac:	48 85 c0             	test   rax,rax
  8031af:	74 57                	je     803208 <do_req+0xa5>
            {
                p->running_req=p->waiting_reqs;
  8031b1:	48 8b 45 f0          	mov    rax,QWORD PTR [rbp-0x10]
  8031b5:	48 8b 90 88 00 00 00 	mov    rdx,QWORD PTR [rax+0x88]
  8031bc:	48 8b 45 f0          	mov    rax,QWORD PTR [rbp-0x10]
  8031c0:	48 89 90 80 00 00 00 	mov    QWORD PTR [rax+0x80],rdx
                p->waiting_reqs=p->waiting_reqs->next;//取出一个
  8031c7:	48 8b 45 f0          	mov    rax,QWORD PTR [rbp-0x10]
  8031cb:	48 8b 80 88 00 00 00 	mov    rax,QWORD PTR [rax+0x88]
  8031d2:	48 8b 90 b8 00 00 00 	mov    rdx,QWORD PTR [rax+0xb8]
  8031d9:	48 8b 45 f0          	mov    rax,QWORD PTR [rbp-0x10]
  8031dd:	48 89 90 88 00 00 00 	mov    QWORD PTR [rax+0x88],rdx
                dev_funcs[p->operi](p->running_req);
  8031e4:	48 8b 45 f0          	mov    rax,QWORD PTR [rbp-0x10]
  8031e8:	8b 80 a0 00 00 00    	mov    eax,DWORD PTR [rax+0xa0]
  8031ee:	48 98                	cdqe   
  8031f0:	48 8b 14 c5 60 b1 80 	mov    rdx,QWORD PTR [rax*8+0x80b160]
  8031f7:	00 
  8031f8:	48 8b 45 f0          	mov    rax,QWORD PTR [rbp-0x10]
  8031fc:	48 8b 80 80 00 00 00 	mov    rax,QWORD PTR [rax+0x80]
  803203:	48 89 c7             	mov    rdi,rax
  803206:	ff d2                	call   rdx
        for(;p;p=p->next)
  803208:	48 8b 45 f0          	mov    rax,QWORD PTR [rbp-0x10]
  80320c:	48 8b 80 90 00 00 00 	mov    rax,QWORD PTR [rax+0x90]
  803213:	48 89 45 f0          	mov    QWORD PTR [rbp-0x10],rax
  803217:	48 83 7d f0 00       	cmp    QWORD PTR [rbp-0x10],0x0
  80321c:	0f 85 6f ff ff ff    	jne    803191 <do_req+0x2e>
    for(int i=0;i<3;i++)
  803222:	83 45 fc 01          	add    DWORD PTR [rbp-0x4],0x1
  803226:	83 7d fc 02          	cmp    DWORD PTR [rbp-0x4],0x2
  80322a:	0f 8e 4b ff ff ff    	jle    80317b <do_req+0x18>
            }
            //如果还在运行（DONE的状态不能直接覆盖，因为里面的运行结果可能还没被拿走）
        }
    }
    
    return 0;
  803230:	b8 00 00 00 00       	mov    eax,0x0
}
  803235:	c9                   	leave  
  803236:	c3                   	ret    

0000000000803237 <wait_on_req>:


void wait_on_req(int reqi)
{
  803237:	f3 0f 1e fa          	endbr64 
  80323b:	55                   	push   rbp
  80323c:	48 89 e5             	mov    rbp,rsp
  80323f:	89 7d fc             	mov    DWORD PTR [rbp-0x4],edi
    while(reqs[reqi].stat!=REQ_STAT_DONE);
  803242:	90                   	nop
  803243:	8b 45 fc             	mov    eax,DWORD PTR [rbp-0x4]
  803246:	48 63 d0             	movsxd rdx,eax
  803249:	48 89 d0             	mov    rax,rdx
  80324c:	48 01 c0             	add    rax,rax
  80324f:	48 01 d0             	add    rax,rdx
  803252:	48 c1 e0 06          	shl    rax,0x6
  803256:	48 05 2c 6d 40 00    	add    rax,0x406d2c
  80325c:	8b 00                	mov    eax,DWORD PTR [rax]
  80325e:	83 f8 03             	cmp    eax,0x3
  803261:	75 e0                	jne    803243 <wait_on_req+0xc>
}
  803263:	90                   	nop
  803264:	90                   	nop
  803265:	5d                   	pop    rbp
  803266:	c3                   	ret    

0000000000803267 <clear_req>:
void clear_req(int reqi)
{
  803267:	f3 0f 1e fa          	endbr64 
  80326b:	55                   	push   rbp
  80326c:	48 89 e5             	mov    rbp,rsp
  80326f:	89 7d fc             	mov    DWORD PTR [rbp-0x4],edi
    reqs[reqi].stat=REQ_STAT_EMPTY;
  803272:	8b 45 fc             	mov    eax,DWORD PTR [rbp-0x4]
  803275:	48 63 d0             	movsxd rdx,eax
  803278:	48 89 d0             	mov    rax,rdx
  80327b:	48 01 c0             	add    rax,rax
  80327e:	48 01 d0             	add    rax,rdx
  803281:	48 c1 e0 06          	shl    rax,0x6
  803285:	48 05 2c 6d 40 00    	add    rax,0x406d2c
  80328b:	c7 00 00 00 00 00    	mov    DWORD PTR [rax],0x0
  803291:	90                   	nop
  803292:	5d                   	pop    rbp
  803293:	c3                   	ret    

0000000000803294 <init_proc>:
TSS scene_saver;
TSS *tss=0x108000;
int cur_proc=0;
int pidd=0;
int palloc_paddr=0;
void init_proc(){
  803294:	f3 0f 1e fa          	endbr64 
  803298:	55                   	push   rbp
  803299:	48 89 e5             	mov    rbp,rsp
  80329c:	48 83 ec 10          	sub    rsp,0x10
    //task=(struct process*)get_global_var(TASK_PCBS_ADDR);//[MAX_TASKS];;
    for(int i=0;i<MAX_PROC_COUNT;i++){
  8032a0:	c7 45 fc 00 00 00 00 	mov    DWORD PTR [rbp-0x4],0x0
  8032a7:	eb 61                	jmp    80330a <init_proc+0x76>
        task[i].pid=-1;
  8032a9:	8b 45 fc             	mov    eax,DWORD PTR [rbp-0x4]
  8032ac:	48 63 d0             	movsxd rdx,eax
  8032af:	48 89 d0             	mov    rax,rdx
  8032b2:	48 01 c0             	add    rax,rax
  8032b5:	48 01 d0             	add    rax,rdx
  8032b8:	48 c1 e0 08          	shl    rax,0x8
  8032bc:	48 05 a0 84 40 00    	add    rax,0x4084a0
  8032c2:	c7 00 ff ff ff ff    	mov    DWORD PTR [rax],0xffffffff
        task[i].stat=ENDED;
  8032c8:	8b 45 fc             	mov    eax,DWORD PTR [rbp-0x4]
  8032cb:	48 63 d0             	movsxd rdx,eax
  8032ce:	48 89 d0             	mov    rax,rdx
  8032d1:	48 01 c0             	add    rax,rax
  8032d4:	48 01 d0             	add    rax,rdx
  8032d7:	48 c1 e0 08          	shl    rax,0x8
  8032db:	48 05 a4 84 40 00    	add    rax,0x4084a4
  8032e1:	c7 00 03 00 00 00    	mov    DWORD PTR [rax],0x3
        task[i].parent_pid=-1;
  8032e7:	8b 45 fc             	mov    eax,DWORD PTR [rbp-0x4]
  8032ea:	48 63 d0             	movsxd rdx,eax
  8032ed:	48 89 d0             	mov    rax,rdx
  8032f0:	48 01 c0             	add    rax,rax
  8032f3:	48 01 d0             	add    rax,rdx
  8032f6:	48 c1 e0 08          	shl    rax,0x8
  8032fa:	48 05 28 85 40 00    	add    rax,0x408528
  803300:	c7 00 ff ff ff ff    	mov    DWORD PTR [rax],0xffffffff
    for(int i=0;i<MAX_PROC_COUNT;i++){
  803306:	83 45 fc 01          	add    DWORD PTR [rbp-0x4],0x1
  80330a:	83 7d fc 3f          	cmp    DWORD PTR [rbp-0x4],0x3f
  80330e:	7e 99                	jle    8032a9 <init_proc+0x15>
    }
    cur_proc=0;//no proc
  803310:	c7 05 12 12 c1 ff 00 	mov    DWORD PTR [rip+0xffffffffffc11212],0x0        # 41452c <cur_proc>
  803317:	00 00 00 
    current=task;
  80331a:	48 c7 05 7b 11 c1 ff 	mov    QWORD PTR [rip+0xffffffffffc1117b],0x4084a0        # 4144a0 <current>
  803321:	a0 84 40 00 
    pidd=1;
  803325:	c7 05 01 12 c1 ff 01 	mov    DWORD PTR [rip+0xffffffffffc11201],0x1        # 414530 <pidd>
  80332c:	00 00 00 
     //创建0号进程
    int zi=create_proc();
  80332f:	b8 00 00 00 00       	mov    eax,0x0
  803334:	e8 8d 02 00 00       	call   8035c6 <create_proc>
  803339:	89 45 f8             	mov    DWORD PTR [rbp-0x8],eax
    task[zi].stat=READY;
  80333c:	8b 45 f8             	mov    eax,DWORD PTR [rbp-0x8]
  80333f:	48 63 d0             	movsxd rdx,eax
  803342:	48 89 d0             	mov    rax,rdx
  803345:	48 01 c0             	add    rax,rax
  803348:	48 01 d0             	add    rax,rdx
  80334b:	48 c1 e0 08          	shl    rax,0x8
  80334f:	48 05 a4 84 40 00    	add    rax,0x4084a4
  803355:	c7 00 01 00 00 00    	mov    DWORD PTR [rax],0x1
    int xi= _LDT_IND(zi)*8;
  80335b:	8b 45 f8             	mov    eax,DWORD PTR [rbp-0x8]
  80335e:	83 c0 03             	add    eax,0x3
  803361:	c1 e0 04             	shl    eax,0x4
  803364:	89 45 f4             	mov    DWORD PTR [rbp-0xc],eax
    zi=_TSS_IND(zi)*8;
  803367:	8b 45 f8             	mov    eax,DWORD PTR [rbp-0x8]
  80336a:	01 c0                	add    eax,eax
  80336c:	83 c0 05             	add    eax,0x5
  80336f:	c1 e0 03             	shl    eax,0x3
  803372:	89 45 f8             	mov    DWORD PTR [rbp-0x8],eax
    //asm volatile("lldt %0"::"m"(xi));
    //asm volatile("ltr %0"::"m"(zi));
    set_tss(0x400000,0x400000,0x400000,0x800000,0x800000,0x800000,0x800000,0x800000,0x800000,0x800000);
  803375:	68 00 00 80 00       	push   0x800000
  80337a:	68 00 00 80 00       	push   0x800000
  80337f:	68 00 00 80 00       	push   0x800000
  803384:	68 00 00 80 00       	push   0x800000
  803389:	41 b9 00 00 80 00    	mov    r9d,0x800000
  80338f:	41 b8 00 00 80 00    	mov    r8d,0x800000
  803395:	b9 00 00 80 00       	mov    ecx,0x800000
  80339a:	ba 00 00 40 00       	mov    edx,0x400000
  80339f:	be 00 00 40 00       	mov    esi,0x400000
  8033a4:	bf 00 00 40 00       	mov    edi,0x400000
  8033a9:	e8 cb 13 00 00       	call   804779 <set_tss>
  8033ae:	48 83 c4 20          	add    rsp,0x20
    //IA32_INTERRUPT_SSP_TABLE_ADDR，准备IST
    wrmsr(0x6a8,tss->rsvd2);
  8033b2:	48 8b 05 c7 7d 00 00 	mov    rax,QWORD PTR [rip+0x7dc7]        # 80b180 <tss>
  8033b9:	48 8b 40 1c          	mov    rax,QWORD PTR [rax+0x1c]
  8033bd:	48 89 c6             	mov    rsi,rax
  8033c0:	bf a8 06 00 00       	mov    edi,0x6a8
  8033c5:	e8 24 d4 ff ff       	call   8007ee <wrmsr>
    //把内核代码段选择子写到MSR寄存器中准备用于特权级转换(sysexit，现在没用)
    wrmsr(0x174,0x8);
  8033ca:	be 08 00 00 00       	mov    esi,0x8
  8033cf:	bf 74 01 00 00       	mov    edi,0x174
  8033d4:	e8 15 d4 ff ff       	call   8007ee <wrmsr>
    //准备用于特权级转换(sysret，正在使用)
    wrmsr(0xc0000081,0x0020000800000000ul);
  8033d9:	48 b8 00 00 00 00 08 	movabs rax,0x20000800000000
  8033e0:	00 20 00 
  8033e3:	48 89 c6             	mov    rsi,rax
  8033e6:	b8 81 00 00 c0       	mov    eax,0xc0000081
  8033eb:	48 89 c7             	mov    rdi,rax
  8033ee:	e8 fb d3 ff ff       	call   8007ee <wrmsr>
    //创建一个测试进程
    create_test_proc();
  8033f3:	b8 00 00 00 00       	mov    eax,0x0
  8033f8:	e8 03 00 00 00       	call   803400 <create_test_proc>
}
  8033fd:	90                   	nop
  8033fe:	c9                   	leave  
  8033ff:	c3                   	ret    

0000000000803400 <create_test_proc>:
void create_test_proc(){
  803400:	f3 0f 1e fa          	endbr64 
  803404:	55                   	push   rbp
  803405:	48 89 e5             	mov    rbp,rsp
  803408:	48 83 ec 20          	sub    rsp,0x20

    int index=req_proc();
  80340c:	b8 00 00 00 00       	mov    eax,0x0
  803411:	e8 33 02 00 00       	call   803649 <req_proc>
  803416:	89 45 fc             	mov    DWORD PTR [rbp-0x4],eax
    task[index].stat=READY;
  803419:	8b 45 fc             	mov    eax,DWORD PTR [rbp-0x4]
  80341c:	48 63 d0             	movsxd rdx,eax
  80341f:	48 89 d0             	mov    rax,rdx
  803422:	48 01 c0             	add    rax,rax
  803425:	48 01 d0             	add    rax,rdx
  803428:	48 c1 e0 08          	shl    rax,0x8
  80342c:	48 05 a4 84 40 00    	add    rax,0x4084a4
  803432:	c7 00 01 00 00 00    	mov    DWORD PTR [rax],0x1
    int currsp=0x9fc00-1;
  803438:	c7 45 ec ff fb 09 00 	mov    DWORD PTR [rbp-0x14],0x9fbff
    asm volatile("mov %%rsp,%0":"=m"(currsp));
  80343f:	48 89 65 ec          	mov    QWORD PTR [rbp-0x14],rsp
    set_proc(0, 0, 0, 0, 0x10, 0x8, 0x10, 0x10, 0x10, 0x10,
  803443:	ba f2 b0 80 00       	mov    edx,0x80b0f2
  803448:	48 83 ec 08          	sub    rsp,0x8
  80344c:	8b 45 fc             	mov    eax,DWORD PTR [rbp-0x4]
  80344f:	50                   	push   rax
  803450:	6a 00                	push   0x0
  803452:	52                   	push   rdx
  803453:	6a 00                	push   0x0
  803455:	6a 00                	push   0x0
  803457:	6a 00                	push   0x0
  803459:	68 58 7d 00 00       	push   0x7d58
  80345e:	6a 10                	push   0x10
  803460:	6a 10                	push   0x10
  803462:	6a 10                	push   0x10
  803464:	6a 10                	push   0x10
  803466:	41 b9 08 00 00 00    	mov    r9d,0x8
  80346c:	41 b8 10 00 00 00    	mov    r8d,0x10
  803472:	b9 00 00 00 00       	mov    ecx,0x0
  803477:	ba 00 00 00 00       	mov    edx,0x0
  80347c:	be 00 00 00 00       	mov    esi,0x0
  803481:	bf 00 00 00 00       	mov    edi,0x0
  803486:	e8 b7 02 00 00       	call   803742 <set_proc>
  80348b:	48 83 c4 60          	add    rsp,0x60
             0x7e00- sizeof(stack_store_regs), 0, 0, 0, (long)ret_sys_call, 0, index);
    task[index].tss.rsp0=0x400000;
  80348f:	8b 45 fc             	mov    eax,DWORD PTR [rbp-0x4]
  803492:	48 63 d0             	movsxd rdx,eax
  803495:	48 89 d0             	mov    rax,rdx
  803498:	48 01 c0             	add    rax,rax
  80349b:	48 01 d0             	add    rax,rdx
  80349e:	48 c1 e0 08          	shl    rax,0x8
  8034a2:	48 05 68 86 40 00    	add    rax,0x408668
  8034a8:	48 c7 00 00 00 40 00 	mov    QWORD PTR [rax],0x400000
    //把还原现场时用到的堆栈设置好
    stack_store_regs *str= (stack_store_regs *) (0x7e00 - sizeof(stack_store_regs));
  8034af:	48 c7 45 f0 58 7d 00 	mov    QWORD PTR [rbp-0x10],0x7d58
  8034b6:	00 
    str->rax=0;
  8034b7:	48 8b 45 f0          	mov    rax,QWORD PTR [rbp-0x10]
  8034bb:	48 c7 40 78 00 00 00 	mov    QWORD PTR [rax+0x78],0x0
  8034c2:	00 
    str->rbx=0;
  8034c3:	48 8b 45 f0          	mov    rax,QWORD PTR [rbp-0x10]
  8034c7:	48 c7 40 70 00 00 00 	mov    QWORD PTR [rax+0x70],0x0
  8034ce:	00 
    str->rcx=proc_zero;//sysret采用的返回地址
  8034cf:	ba ae 38 80 00       	mov    edx,0x8038ae
  8034d4:	48 8b 45 f0          	mov    rax,QWORD PTR [rbp-0x10]
  8034d8:	48 89 50 68          	mov    QWORD PTR [rax+0x68],rdx
    str->rdx=0;
  8034dc:	48 8b 45 f0          	mov    rax,QWORD PTR [rbp-0x10]
  8034e0:	48 c7 40 60 00 00 00 	mov    QWORD PTR [rax+0x60],0x0
  8034e7:	00 
    str->rsi=0;
  8034e8:	48 8b 45 f0          	mov    rax,QWORD PTR [rbp-0x10]
  8034ec:	48 c7 40 50 00 00 00 	mov    QWORD PTR [rax+0x50],0x0
  8034f3:	00 
    str->rdi=0;
  8034f4:	48 8b 45 f0          	mov    rax,QWORD PTR [rbp-0x10]
  8034f8:	48 c7 40 58 00 00 00 	mov    QWORD PTR [rax+0x58],0x0
  8034ff:	00 
    str->r15=0;
  803500:	48 8b 45 f0          	mov    rax,QWORD PTR [rbp-0x10]
  803504:	48 c7 40 10 00 00 00 	mov    QWORD PTR [rax+0x10],0x0
  80350b:	00 
    str->r14=0;
  80350c:	48 8b 45 f0          	mov    rax,QWORD PTR [rbp-0x10]
  803510:	48 c7 40 18 00 00 00 	mov    QWORD PTR [rax+0x18],0x0
  803517:	00 
    str->r13=0;
  803518:	48 8b 45 f0          	mov    rax,QWORD PTR [rbp-0x10]
  80351c:	48 c7 40 20 00 00 00 	mov    QWORD PTR [rax+0x20],0x0
  803523:	00 
    str->r12=0;
  803524:	48 8b 45 f0          	mov    rax,QWORD PTR [rbp-0x10]
  803528:	48 c7 40 28 00 00 00 	mov    QWORD PTR [rax+0x28],0x0
  80352f:	00 
    str->r11=0;
  803530:	48 8b 45 f0          	mov    rax,QWORD PTR [rbp-0x10]
  803534:	48 c7 40 30 00 00 00 	mov    QWORD PTR [rax+0x30],0x0
  80353b:	00 
    str->r10=0;
  80353c:	48 8b 45 f0          	mov    rax,QWORD PTR [rbp-0x10]
  803540:	48 c7 40 38 00 00 00 	mov    QWORD PTR [rax+0x38],0x0
  803547:	00 
    str->r9=0;
  803548:	48 8b 45 f0          	mov    rax,QWORD PTR [rbp-0x10]
  80354c:	48 c7 40 40 00 00 00 	mov    QWORD PTR [rax+0x40],0x0
  803553:	00 
    str->r8=0;
  803554:	48 8b 45 f0          	mov    rax,QWORD PTR [rbp-0x10]
  803558:	48 c7 40 48 00 00 00 	mov    QWORD PTR [rax+0x48],0x0
  80355f:	00 
    str->rip=proc_zero;
  803560:	ba ae 38 80 00       	mov    edx,0x8038ae
  803565:	48 8b 45 f0          	mov    rax,QWORD PTR [rbp-0x10]
  803569:	48 89 90 80 00 00 00 	mov    QWORD PTR [rax+0x80],rdx
    str->cs=0x8;
  803570:	48 8b 45 f0          	mov    rax,QWORD PTR [rbp-0x10]
  803574:	48 c7 80 88 00 00 00 	mov    QWORD PTR [rax+0x88],0x8
  80357b:	08 00 00 00 
    str->rflags=0x00200006;
  80357f:	48 8b 45 f0          	mov    rax,QWORD PTR [rbp-0x10]
  803583:	48 c7 80 90 00 00 00 	mov    QWORD PTR [rax+0x90],0x200006
  80358a:	06 00 20 00 
    str->rsp=0x7e00;
  80358e:	48 8b 45 f0          	mov    rax,QWORD PTR [rbp-0x10]
  803592:	48 c7 80 98 00 00 00 	mov    QWORD PTR [rax+0x98],0x7e00
  803599:	00 7e 00 00 
    str->ss=0x2b;
  80359d:	48 8b 45 f0          	mov    rax,QWORD PTR [rbp-0x10]
  8035a1:	48 c7 80 a0 00 00 00 	mov    QWORD PTR [rax+0xa0],0x2b
  8035a8:	2b 00 00 00 
    str->ds=0x2b;
  8035ac:	48 8b 45 f0          	mov    rax,QWORD PTR [rbp-0x10]
  8035b0:	48 c7 00 2b 00 00 00 	mov    QWORD PTR [rax],0x2b
    str->es=0x2b;
  8035b7:	48 8b 45 f0          	mov    rax,QWORD PTR [rbp-0x10]
  8035bb:	48 c7 40 08 2b 00 00 	mov    QWORD PTR [rax+0x8],0x2b
  8035c2:	00 

}
  8035c3:	90                   	nop
  8035c4:	c9                   	leave  
  8035c5:	c3                   	ret    

00000000008035c6 <create_proc>:
int create_proc()
{
  8035c6:	f3 0f 1e fa          	endbr64 
  8035ca:	55                   	push   rbp
  8035cb:	48 89 e5             	mov    rbp,rsp
  8035ce:	48 83 ec 10          	sub    rsp,0x10
    int index=req_proc();
  8035d2:	b8 00 00 00 00       	mov    eax,0x0
  8035d7:	e8 6d 00 00 00       	call   803649 <req_proc>
  8035dc:	89 45 fc             	mov    DWORD PTR [rbp-0x4],eax
    if(index==-1)return -1;
  8035df:	83 7d fc ff          	cmp    DWORD PTR [rbp-0x4],0xffffffff
  8035e3:	75 07                	jne    8035ec <create_proc+0x26>
  8035e5:	b8 ff ff ff ff       	mov    eax,0xffffffff
  8035ea:	eb 5b                	jmp    803647 <create_proc+0x81>
    int currsp=0x9fc00-1;
  8035ec:	c7 45 f8 ff fb 09 00 	mov    DWORD PTR [rbp-0x8],0x9fbff
    asm volatile("mov %%rsp,%0":"=m"(currsp));
  8035f3:	48 89 65 f8          	mov    QWORD PTR [rbp-0x8],rsp
    //默认DPL=3
    //set_proc(0,0,0,0,0x23,0x1b,0x23,0x23,0x23,0x23,curesp,0,0,0,0,index);
    set_proc(0, 0, 0, 0, 0x10, 0x8, 0x10, 0x10, 0x10, 0x10,
  8035f7:	b9 ae 38 80 00       	mov    ecx,0x8038ae
  8035fc:	8b 45 f8             	mov    eax,DWORD PTR [rbp-0x8]
  8035ff:	48 98                	cdqe   
  803601:	48 83 ec 08          	sub    rsp,0x8
  803605:	8b 55 fc             	mov    edx,DWORD PTR [rbp-0x4]
  803608:	52                   	push   rdx
  803609:	6a 00                	push   0x0
  80360b:	51                   	push   rcx
  80360c:	6a 00                	push   0x0
  80360e:	6a 00                	push   0x0
  803610:	6a 00                	push   0x0
  803612:	50                   	push   rax
  803613:	6a 10                	push   0x10
  803615:	6a 10                	push   0x10
  803617:	6a 10                	push   0x10
  803619:	6a 10                	push   0x10
  80361b:	41 b9 08 00 00 00    	mov    r9d,0x8
  803621:	41 b8 10 00 00 00    	mov    r8d,0x10
  803627:	b9 00 00 00 00       	mov    ecx,0x0
  80362c:	ba 00 00 00 00       	mov    edx,0x0
  803631:	be 00 00 00 00       	mov    esi,0x0
  803636:	bf 00 00 00 00       	mov    edi,0x0
  80363b:	e8 02 01 00 00       	call   803742 <set_proc>
  803640:	48 83 c4 60          	add    rsp,0x60
             currsp, 0, 0, 0, (long)proc_zero, 0, index);
//    task[index].tss.eip=(long)proc_zero;

    return index;
  803644:	8b 45 fc             	mov    eax,DWORD PTR [rbp-0x4]
}
  803647:	c9                   	leave  
  803648:	c3                   	ret    

0000000000803649 <req_proc>:
int req_proc(){
  803649:	f3 0f 1e fa          	endbr64 
  80364d:	55                   	push   rbp
  80364e:	48 89 e5             	mov    rbp,rsp
    int num=0;
  803651:	c7 45 fc 00 00 00 00 	mov    DWORD PTR [rbp-0x4],0x0
    while(task[num].pid!=-1&&task[num].stat!=ENDED&&\
